	.file	"cp.cc"
	.text
.Ltext0:
	.file 0 "/mnt/c/Users/user/Documents/parallelcomputers/ppc/cp3a" "cp.cc"
	.section	.rodata.str1.8,"aMS",@progbits,1
	.align 8
.LC1:
	.string	"cannot create std::vector larger than max_size()"
	.text
	.p2align 4
	.globl	_Z9correlateiiPKfPf
	.type	_Z9correlateiiPKfPf, @function
_Z9correlateiiPKfPf:
.LVL0:
.LFB2854:
	.file 1 "cp.cc"
	.loc 1 48 66 view -0
	.cfi_startproc
	.loc 1 48 66 is_stmt 0 view .LVU1
	endbr64
	.loc 1 52 3 is_stmt 1 view .LVU2
.LVL1:
	.loc 1 53 3 view .LVU3
	.loc 1 48 66 is_stmt 0 view .LVU4
	pushq	%r13
	.cfi_def_cfa_offset 16
	.cfi_offset 13, -16
	.loc 1 53 7 view .LVU5
	leal	6(%rsi), %eax
	.loc 1 48 66 view .LVU6
	leaq	16(%rsp), %r13
	.cfi_def_cfa 13, 0
	andq	$-32, %rsp
	pushq	-8(%r13)
	pushq	%rbp
	movq	%rsp, %rbp
	.cfi_escape 0x10,0x6,0x2,0x76,0
	pushq	%r15
	.cfi_escape 0x10,0xf,0x2,0x76,0x78
	.loc 1 59 21 view .LVU7
	leal	2(%rdi), %r15d
	.loc 1 48 66 view .LVU8
	pushq	%r14
	pushq	%r13
	.cfi_escape 0xf,0x3,0x76,0x68,0x6
	.cfi_escape 0x10,0xe,0x2,0x76,0x70
	pushq	%r12
	pushq	%rbx
	.cfi_escape 0x10,0xc,0x2,0x76,0x60
	.cfi_escape 0x10,0x3,0x2,0x76,0x58
	movq	%rdx, %rbx
	subq	$424, %rsp
	.loc 1 48 66 view .LVU9
	movl	%esi, -420(%rbp)
	.loc 1 53 7 view .LVU10
	addl	$3, %esi
.LVL2:
	.loc 1 53 7 view .LVU11
	cmovns	%esi, %eax
	.loc 1 48 66 view .LVU12
	movl	%edi, -372(%rbp)
	.loc 1 53 7 view .LVU13
	sarl	$2, %eax
	movl	%eax, %r12d
.LVL3:
	.loc 1 55 3 is_stmt 1 view .LVU14
	.loc 1 56 3 view .LVU15
	.loc 1 56 7 is_stmt 0 view .LVU16
	movl	%r12d, %edx
.LVL4:
	.loc 1 56 7 view .LVU17
	addl	$6, %eax
.LVL5:
	.loc 1 56 7 view .LVU18
	addl	$3, %edx
.LVL6:
	.loc 1 56 7 view .LVU19
	cmovns	%edx, %eax
	.loc 1 59 7 view .LVU20
	movl	%r15d, %edx
	.loc 1 56 7 view .LVU21
	sarl	$2, %eax
	movl	%eax, -376(%rbp)
.LVL7:
	.loc 1 58 3 is_stmt 1 view .LVU22
	.loc 1 59 3 view .LVU23
	.loc 1 59 7 is_stmt 0 view .LVU24
	movslq	%r15d, %rax
.LVL8:
	.loc 1 59 7 view .LVU25
	imulq	$1431655766, %rax, %rax
	sarl	$31, %edx
	.loc 1 48 66 view .LVU26
	movq	%rcx, -400(%rbp)
	.loc 1 59 7 view .LVU27
	shrq	$32, %rax
	subl	%edx, %eax
	.loc 1 61 7 view .LVU28
	leal	(%rax,%rax,2), %r13d
	.loc 1 59 7 view .LVU29
	movl	%eax, -456(%rbp)
.LVL9:
	.loc 1 61 3 is_stmt 1 view .LVU30
	.loc 1 62 3 view .LVU31
.LBB412:
.LBI412:
	.file 2 "/usr/include/c++/11/bits/allocator.h"
	.loc 2 156 7 view .LVU32
.LBB413:
.LBI413:
	.file 3 "/usr/include/c++/11/ext/new_allocator.h"
	.loc 3 79 7 view .LVU33
	.loc 3 79 7 is_stmt 0 view .LVU34
.LBE413:
.LBE412:
	.loc 1 62 32 view .LVU35
	movl	%r12d, %eax
.LVL10:
	.loc 1 62 32 view .LVU36
	imull	%r13d, %eax
	.loc 1 62 37 view .LVU37
	movslq	%eax, %rdx
.LVL11:
.LBB414:
.LBI414:
	.file 4 "/usr/include/c++/11/bits/stl_vector.h"
	.loc 4 510 7 is_stmt 1 view .LVU38
.LBB415:
.LBI415:
	.loc 4 1767 7 view .LVU39
.LBB416:
.LBB417:
.LBI417:
	.loc 2 159 7 view .LVU40
.LBB418:
.LBI418:
	.loc 3 82 7 view .LVU41
	.loc 3 82 7 is_stmt 0 view .LVU42
.LBE418:
.LBE417:
.LBB419:
.LBI419:
	.loc 2 174 7 is_stmt 1 view .LVU43
.LBB420:
.LBI420:
	.loc 3 89 7 view .LVU44
.LBE420:
.LBE419:
	.loc 4 1769 2 is_stmt 0 view .LVU45
	movq	%rdx, %rax
	shrq	$58, %rax
	jne	.L104
.LVL12:
	.loc 4 1769 2 view .LVU46
.LBE416:
.LBE415:
.LBB422:
.LBI422:
	.loc 4 303 7 is_stmt 1 view .LVU47
.LBB423:
.LBI423:
	.loc 4 136 2 view .LVU48
.LBB424:
.LBI424:
	.loc 2 159 7 view .LVU49
.LBB425:
.LBI425:
	.loc 3 82 7 view .LVU50
	.loc 3 82 7 is_stmt 0 view .LVU51
.LBE425:
.LBE424:
.LBB426:
.LBI426:
	.loc 4 97 2 is_stmt 1 view .LVU52
	.loc 4 97 2 is_stmt 0 view .LVU53
.LBE426:
.LBE423:
.LBB427:
.LBI427:
	.loc 4 359 7 is_stmt 1 view .LVU54
.LBB428:
.LBB429:
.LBI429:
	.loc 4 343 7 view .LVU55
.LBB430:
.LBB431:
.LBB432:
.LBB433:
	.loc 3 124 45 is_stmt 0 view .LVU56
	movq	%rdx, %rcx
.LVL13:
	.loc 3 124 45 view .LVU57
	salq	$5, %rcx
.LBE433:
.LBE432:
.LBE431:
	.loc 4 346 18 view .LVU58
	testq	%rdx, %rdx
	movq	%rdx, -112(%rbp)
	je	.L71
.LVL14:
.LBB438:
.LBI431:
	.file 5 "/usr/include/c++/11/bits/alloc_traits.h"
	.loc 5 463 7 is_stmt 1 view .LVU59
.LBB436:
.LBI432:
	.loc 3 103 7 view .LVU60
.LBB434:
	.loc 3 124 45 is_stmt 0 view .LVU61
	movq	%rcx, %rdi
.LVL15:
	.loc 3 124 45 view .LVU62
	movl	$32, %esi
	movq	%rcx, -80(%rbp)
	call	_ZnwmSt11align_val_t@PLT
.LVL16:
	.loc 3 124 45 view .LVU63
.LBE434:
.LBE436:
.LBE438:
.LBE430:
.LBE429:
	.loc 4 363 59 view .LVU64
	movq	-80(%rbp), %rcx
.LBE428:
.LBE427:
.LBE422:
.LBB450:
.LBB451:
.LBB452:
.LBB453:
.LBB454:
.LBB455:
.LBB456:
.LBB457:
.LBB458:
.LBB459:
	.file 6 "/usr/include/c++/11/bits/stl_algobase.h"
	.loc 6 1115 7 view .LVU65
	movq	-112(%rbp), %rdx
.LBE459:
.LBE458:
.LBE457:
.LBE456:
.LBE455:
.LBE454:
.LBE453:
.LBE452:
.LBE451:
.LBE450:
.LBB488:
.LBB447:
.LBB444:
	.loc 4 363 59 view .LVU66
	addq	%rax, %rcx
.LBE444:
.LBE447:
.LBE488:
.LBB489:
.LBB486:
.LBB484:
.LBB482:
.LBB480:
.LBB478:
.LBB476:
.LBB470:
.LBB471:
	.file 7 "/usr/include/c++/11/bits/stl_construct.h"
	.loc 7 119 7 view .LVU67
	vxorpd	%xmm0, %xmm0, %xmm0
.LBE471:
.LBE470:
.LBE476:
.LBE478:
.LBE480:
.LBE482:
.LBE484:
.LBE486:
.LBE489:
.LBB490:
.LBB448:
.LBB445:
	.loc 4 363 59 view .LVU68
	movq	%rcx, -464(%rbp)
.LBB442:
.LBB440:
.LBB439:
.LBB437:
.LBB435:
	.loc 3 124 45 view .LVU69
	movq	%rax, %r14
.LVL17:
	.loc 3 124 45 view .LVU70
.LBE435:
.LBE437:
.LBE439:
.LBE440:
.LBE442:
.LBE445:
.LBE448:
.LBE490:
.LBB491:
.LBI450:
	.loc 4 1603 7 is_stmt 1 view .LVU71
.LBB487:
.LBI451:
	.file 8 "/usr/include/c++/11/bits/stl_uninitialized.h"
	.loc 8 702 5 view .LVU72
.LBB485:
.LBI452:
	.loc 8 630 5 view .LVU73
.LBB483:
.LBB481:
.LBI454:
	.loc 8 595 9 view .LVU74
.LBB479:
.LBI455:
	.loc 8 595 9 view .LVU75
.LBB477:
.LBB473:
.LBI470:
	.loc 7 109 5 view .LVU76
.LBB472:
	.loc 7 119 7 is_stmt 0 view .LVU77
	vmovapd	%ymm0, (%rax)
.LVL18:
	.loc 7 119 7 view .LVU78
.LBE472:
.LBE473:
.LBB474:
.LBI457:
	.loc 6 1144 5 is_stmt 1 view .LVU79
.LBB468:
.LBI458:
	.loc 6 1109 5 view .LVU80
.LBB466:
	.loc 6 1115 7 is_stmt 0 view .LVU81
	cmpq	$1, %rdx
	je	.L3
.LVL19:
.LBB460:
.LBB461:
.LBB462:
	.loc 6 911 22 is_stmt 1 view .LVU82
.LBE462:
.LBE461:
.LBE460:
.LBE466:
.LBE468:
.LBE474:
	.loc 8 602 8 is_stmt 0 view .LVU83
	leaq	32(%rax), %rax
.LVL20:
.LBB475:
.LBB469:
.LBB467:
.LBB465:
.LBB464:
.LBB463:
	.loc 6 911 22 view .LVU84
	cmpq	%rax, %rcx
	je	.L3
	.loc 6 911 7 view .LVU85
	leaq	64(%r14), %rax
.LVL21:
	.loc 6 912 11 view .LVU86
	vmovapd	%ymm0, 32(%r14)
	.loc 6 911 7 is_stmt 1 view .LVU87
.LVL22:
	.loc 6 911 22 view .LVU88
	cmpq	%rcx, %rax
	je	.L3
.L4:
	.loc 6 912 11 is_stmt 0 view .LVU89
	vmovapd	(%r14), %ymm6
	.loc 6 911 7 view .LVU90
	addq	$32, %rax
.LVL23:
	.loc 6 912 11 view .LVU91
	vmovapd	%ymm6, -32(%rax)
	.loc 6 911 7 is_stmt 1 view .LVU92
.LVL24:
	.loc 6 911 22 view .LVU93
	cmpq	-464(%rbp), %rax
	jne	.L4
.LVL25:
.L3:
	.loc 6 911 22 is_stmt 0 view .LVU94
.LBE463:
.LBE464:
.LBE465:
.LBE467:
.LBE469:
.LBE475:
.LBE477:
.LBE479:
.LBE481:
.LBE483:
.LBE485:
.LBE487:
.LBE491:
.LBE414:
.LBB494:
.LBI494:
	.loc 2 174 7 is_stmt 1 view .LVU95
.LBB495:
.LBI495:
	.loc 3 89 7 view .LVU96
	.loc 3 89 7 is_stmt 0 view .LVU97
.LBE495:
.LBE494:
	.loc 1 75 3 is_stmt 1 view .LVU98
.LBB496:
	.loc 1 75 21 view .LVU99
	vxorps	%xmm8, %xmm8, %xmm8
	testl	%r13d, %r13d
	jle	.L5
	movl	-372(%rbp), %r10d
	testl	%r10d, %r10d
	jg	.L6
	xorl	%edi, %edi
.LVL26:
.L7:
	.loc 1 75 21 is_stmt 0 view .LVU100
	movl	-420(%rbp), %r9d
	movl	%edi, %esi
	imull	%r12d, %esi
	movl	$1, %eax
	testl	%r9d, %r9d
	cmovg	%r12d, %eax
.LBB497:
.LBB498:
	.loc 1 82 31 view .LVU101
	vxorpd	%xmm0, %xmm0, %xmm0
	leal	-1(%rax), %ecx
	incq	%rcx
	salq	$5, %rcx
.L23:
.LVL27:
	.loc 1 82 31 view .LVU102
.LBE498:
	.loc 1 76 25 is_stmt 1 view .LVU103
	movl	-420(%rbp), %r8d
	testl	%r8d, %r8d
	jle	.L21
	movslq	%esi, %rax
	salq	$5, %rax
	addq	%r14, %rax
	leaq	(%rcx,%rax), %rdx
.LVL28:
.L22:
.LBB503:
	.loc 1 77 27 view .LVU104
	.loc 1 78 9 view .LVU105
	.loc 1 82 11 view .LVU106
.LBB499:
.LBI499:
	.loc 4 1043 7 view .LVU107
	.loc 4 1043 7 is_stmt 0 view .LVU108
.LBE499:
	.loc 1 77 7 is_stmt 1 view .LVU109
	.loc 1 77 27 view .LVU110
	.loc 1 78 9 view .LVU111
	.loc 1 82 11 view .LVU112
.LBB500:
	.loc 4 1043 7 view .LVU113
	.loc 4 1043 7 is_stmt 0 view .LVU114
.LBE500:
	.loc 1 77 7 is_stmt 1 view .LVU115
	.loc 1 77 27 view .LVU116
	.loc 1 78 9 view .LVU117
	.loc 1 82 11 view .LVU118
.LBB501:
	.loc 4 1043 7 view .LVU119
	.loc 4 1043 7 is_stmt 0 view .LVU120
.LBE501:
	.loc 1 77 7 is_stmt 1 view .LVU121
	.loc 1 77 27 view .LVU122
	.loc 1 78 9 view .LVU123
	.loc 1 82 11 view .LVU124
.LBB502:
	.loc 4 1043 7 view .LVU125
	.loc 4 1043 7 is_stmt 0 view .LVU126
.LBE502:
	.loc 1 82 31 view .LVU127
	vmovapd	%ymm0, (%rax)
	.loc 1 77 7 is_stmt 1 view .LVU128
.LVL29:
	.loc 1 77 27 view .LVU129
.LBE503:
	.loc 1 76 5 view .LVU130
	.loc 1 76 25 view .LVU131
	addq	$32, %rax
	cmpq	%rax, %rdx
	jne	.L22
.LVL30:
.L21:
	.loc 1 76 25 is_stmt 0 view .LVU132
.LBE497:
	.loc 1 75 3 is_stmt 1 view .LVU133
	incl	%edi
.LVL31:
	.loc 1 75 21 view .LVU134
	addl	%r12d, %esi
	cmpl	%edi, %r13d
	jg	.L23
.LVL32:
.L5:
	.loc 1 75 21 is_stmt 0 view .LVU135
.LBE496:
.LBB510:
	.loc 1 90 21 is_stmt 1 view .LVU136
.LBE510:
.LBB540:
	.loc 1 103 15 is_stmt 0 view .LVU137
	movl	-420(%rbp), %r11d
.LBE540:
.LBB545:
	.loc 1 90 21 view .LVU138
	movl	-372(%rbp), %esi
.LBE545:
.LBB546:
	.loc 1 103 15 view .LVU139
	andl	$3, %r11d
.LBE546:
.LBB547:
	.loc 1 90 21 view .LVU140
	testl	%esi, %esi
	jle	.L26
.L70:
	.loc 1 90 21 view .LVU141
	movl	-420(%rbp), %ecx
	movl	$1, %edi
	testl	%ecx, %ecx
	cmovg	%r12d, %edi
	vmovdqa	.LC2(%rip), %ymm6
	movl	%edi, %eax
	shrl	$2, %eax
	decl	%eax
	incq	%rax
	movl	%edi, %r10d
	salq	$7, %rax
	vmovdqa	.LC3(%rip), %ymm5
	andl	$-4, %r10d
	xorl	%esi, %esi
	.loc 1 90 12 view .LVU142
	xorl	%r9d, %r9d
.LBB511:
.LBB512:
.LBB513:
.LBB514:
.LBB515:
	.loc 1 19 7 view .LVU143
	vxorpd	%xmm10, %xmm10, %xmm10
.LBE515:
.LBE514:
.LBE513:
.LBE512:
	.loc 1 91 12 view .LVU144
	vxorpd	%xmm9, %xmm9, %xmm9
	movq	%rax, %rbx
.LVL33:
.LBB534:
.LBB525:
.LBB521:
.LBB516:
	.loc 1 19 7 view .LVU145
	vxorpd	%xmm7, %xmm7, %xmm7
.LVL34:
.L27:
	.loc 1 19 7 view .LVU146
.LBE516:
.LBE521:
.LBE525:
	.loc 1 92 25 is_stmt 1 view .LVU147
	testl	%ecx, %ecx
	jle	.L36
	cmpl	$12, %ecx
	jle	.L72
	movslq	%esi, %rdx
	movq	%rdx, %rax
	salq	$5, %rax
	addq	%r14, %rax
	leaq	(%rbx,%rax), %r8
.LBE534:
	.loc 1 91 12 is_stmt 0 view .LVU148
	vmovsd	%xmm9, %xmm9, %xmm11
	vmovsd	%xmm9, %xmm9, %xmm1
.LVL35:
	.p2align 4,,10
	.p2align 3
.L29:
.LBB535:
	.loc 1 93 7 is_stmt 1 discriminator 3 view .LVU149
.LBB526:
.LBI526:
	.loc 4 1043 7 discriminator 3 view .LVU150
	.loc 4 1043 7 is_stmt 0 discriminator 3 view .LVU151
.LBE526:
.LBB528:
.LBI513:
	.loc 1 16 22 is_stmt 1 discriminator 3 view .LVU152
.LBB522:
.LBB517:
	.loc 1 18 21 discriminator 3 view .LVU153
	.loc 1 19 5 discriminator 3 view .LVU154
	.loc 1 19 13 is_stmt 0 discriminator 3 view .LVU155
	vmovapd	(%rax), %ymm2
	vmovapd	32(%rax), %ymm12
	vmovapd	64(%rax), %ymm3
	vmovapd	96(%rax), %ymm0
	vmovapd	%ymm2, %ymm4
	vpermt2pd	%ymm12, %ymm6, %ymm4
	vpermt2pd	%ymm12, %ymm5, %ymm2
	vmovapd	%ymm3, %ymm12
	vpermt2pd	%ymm0, %ymm6, %ymm12
	vpermt2pd	%ymm0, %ymm5, %ymm3
.LVL36:
	.loc 1 18 3 is_stmt 1 discriminator 3 view .LVU156
	.loc 1 18 21 discriminator 3 view .LVU157
	.loc 1 19 5 discriminator 3 view .LVU158
	.loc 1 18 3 discriminator 3 view .LVU159
	.loc 1 18 21 discriminator 3 view .LVU160
	.loc 1 19 5 discriminator 3 view .LVU161
	.loc 1 18 3 discriminator 3 view .LVU162
	.loc 1 18 21 discriminator 3 view .LVU163
	.loc 1 19 5 discriminator 3 view .LVU164
	.loc 1 19 13 is_stmt 0 discriminator 3 view .LVU165
	vmovapd	%ymm4, %ymm0
	vpermt2pd	%ymm12, %ymm6, %ymm0
	.loc 1 19 7 discriminator 3 view .LVU166
	vaddpd	%ymm7, %ymm0, %ymm0
	.loc 1 19 13 discriminator 3 view .LVU167
	vmovapd	%ymm2, %ymm13
	vpermt2pd	%ymm3, %ymm6, %ymm13
	.loc 1 19 7 discriminator 3 view .LVU168
	vaddpd	%ymm13, %ymm0, %ymm0
	.loc 1 19 13 discriminator 3 view .LVU169
	vpermt2pd	%ymm12, %ymm5, %ymm4
	vpermt2pd	%ymm3, %ymm5, %ymm2
	.loc 1 19 7 discriminator 3 view .LVU170
	vaddpd	%ymm4, %ymm0, %ymm0
	subq	$-128, %rax
	vaddpd	%ymm2, %ymm0, %ymm0
	.loc 1 18 3 is_stmt 1 discriminator 3 view .LVU171
.LVL37:
	.loc 1 18 21 discriminator 3 view .LVU172
.LBE517:
	.loc 1 21 3 discriminator 3 view .LVU173
	.loc 1 21 3 is_stmt 0 discriminator 3 view .LVU174
	vaddsd	%xmm0, %xmm1, %xmm1
.LVL38:
	.loc 1 21 3 discriminator 3 view .LVU175
	vunpckhpd	%xmm0, %xmm0, %xmm2
	vextractf64x2	$0x1, %ymm0, %xmm0
	vaddsd	%xmm1, %xmm2, %xmm2
.LBE522:
.LBE528:
	.loc 1 93 12 discriminator 3 view .LVU176
	vaddsd	%xmm2, %xmm0, %xmm1
	vunpckhpd	%xmm0, %xmm0, %xmm0
	vaddsd	%xmm0, %xmm1, %xmm1
.LVL39:
	.loc 1 92 5 is_stmt 1 discriminator 3 view .LVU177
	.loc 1 92 25 discriminator 3 view .LVU178
	cmpq	%rax, %r8
	jne	.L29
	cmpl	%r10d, %edi
	je	.L30
	.loc 1 93 12 is_stmt 0 view .LVU179
	movl	%r10d, %r8d
	.loc 1 92 14 view .LVU180
	movl	%r10d, %eax
.LVL40:
.L28:
	.loc 1 92 14 view .LVU181
	movl	%edi, %r13d
	subl	%r8d, %r13d
	cmpl	$1, %r13d
	je	.L31
	addq	%rdx, %r8
	salq	$5, %r8
	addq	%r14, %r8
.LVL41:
	.loc 1 93 7 is_stmt 1 view .LVU182
.LBB529:
	.loc 4 1043 7 view .LVU183
	.loc 4 1043 7 is_stmt 0 view .LVU184
.LBE529:
.LBB530:
	.loc 1 16 22 is_stmt 1 view .LVU185
.LBB523:
.LBB518:
	.loc 1 18 21 view .LVU186
	.loc 1 19 5 view .LVU187
	.loc 1 19 13 is_stmt 0 view .LVU188
	vmovapd	16(%r8), %xmm12
	vmovapd	48(%r8), %xmm0
	vmovapd	(%r8), %xmm2
	vmovapd	32(%r8), %xmm3
	vunpcklpd	%xmm12, %xmm2, %xmm4
	vunpckhpd	%xmm12, %xmm2, %xmm2
	vunpcklpd	%xmm0, %xmm3, %xmm12
	vunpckhpd	%xmm0, %xmm3, %xmm3
.LVL42:
	.loc 1 18 3 is_stmt 1 view .LVU189
	.loc 1 18 21 view .LVU190
	.loc 1 19 5 view .LVU191
	.loc 1 18 3 view .LVU192
	.loc 1 18 21 view .LVU193
	.loc 1 19 5 view .LVU194
	.loc 1 18 3 view .LVU195
	.loc 1 18 21 view .LVU196
	.loc 1 19 5 view .LVU197
	.loc 1 19 13 is_stmt 0 view .LVU198
	vunpcklpd	%xmm12, %xmm4, %xmm0
	.loc 1 19 7 view .LVU199
	vaddpd	%xmm10, %xmm0, %xmm0
	.loc 1 19 13 view .LVU200
	vunpcklpd	%xmm3, %xmm2, %xmm13
	vunpckhpd	%xmm12, %xmm4, %xmm4
	.loc 1 19 7 view .LVU201
	vaddpd	%xmm13, %xmm0, %xmm0
	.loc 1 19 13 view .LVU202
	vunpckhpd	%xmm3, %xmm2, %xmm2
	movl	%r13d, %r8d
	.loc 1 19 7 view .LVU203
	vaddpd	%xmm4, %xmm0, %xmm0
	andl	$-2, %r8d
	addl	%r8d, %eax
	vaddpd	%xmm2, %xmm0, %xmm0
	.loc 1 18 3 is_stmt 1 view .LVU204
.LVL43:
	.loc 1 18 21 view .LVU205
.LBE518:
	.loc 1 21 3 view .LVU206
	.loc 1 21 3 is_stmt 0 view .LVU207
	vaddsd	%xmm1, %xmm0, %xmm1
.LVL44:
	.loc 1 21 3 view .LVU208
.LBE523:
.LBE530:
	.loc 1 93 12 view .LVU209
	vunpckhpd	%xmm0, %xmm0, %xmm0
	vaddsd	%xmm1, %xmm0, %xmm1
.LVL45:
	.loc 1 92 5 is_stmt 1 view .LVU210
	.loc 1 92 25 view .LVU211
	cmpl	%r13d, %r8d
	je	.L30
.LVL46:
.L31:
	.loc 1 93 7 view .LVU212
.LBB531:
	.loc 4 1043 7 view .LVU213
.LBE531:
	.loc 1 93 27 is_stmt 0 view .LVU214
	addl	%esi, %eax
	.loc 1 93 35 view .LVU215
	cltq
.LBB532:
.LBB527:
	.loc 4 1046 34 view .LVU216
	salq	$5, %rax
	.loc 4 1046 39 view .LVU217
	addq	%r14, %rax
.LVL47:
	.loc 4 1046 39 view .LVU218
.LBE527:
.LBE532:
.LBB533:
	.loc 1 16 22 is_stmt 1 view .LVU219
.LBB524:
.LBB519:
	.loc 1 18 21 view .LVU220
	.loc 1 19 5 view .LVU221
	.loc 1 19 7 is_stmt 0 view .LVU222
	vaddsd	(%rax), %xmm11, %xmm0
.LVL48:
	.loc 1 18 3 is_stmt 1 view .LVU223
	.loc 1 18 21 view .LVU224
	.loc 1 19 5 view .LVU225
	.loc 1 19 7 is_stmt 0 view .LVU226
	vaddsd	8(%rax), %xmm0, %xmm0
.LVL49:
	.loc 1 18 3 is_stmt 1 view .LVU227
	.loc 1 18 21 view .LVU228
	.loc 1 19 5 view .LVU229
	.loc 1 19 7 is_stmt 0 view .LVU230
	vaddsd	16(%rax), %xmm0, %xmm0
.LVL50:
	.loc 1 18 3 is_stmt 1 view .LVU231
	.loc 1 18 21 view .LVU232
	.loc 1 19 5 view .LVU233
	.loc 1 18 3 view .LVU234
	.loc 1 18 21 view .LVU235
.LBE519:
	.loc 1 21 3 view .LVU236
.LBB520:
	.loc 1 19 7 is_stmt 0 view .LVU237
	vaddsd	24(%rax), %xmm0, %xmm0
.LBE520:
.LBE524:
.LBE533:
	.loc 1 93 12 view .LVU238
	vaddsd	%xmm0, %xmm1, %xmm1
.LVL51:
	.loc 1 92 5 is_stmt 1 view .LVU239
	.loc 1 92 25 view .LVU240
.L30:
	.loc 1 92 25 is_stmt 0 view .LVU241
.LBE535:
	.loc 1 95 5 is_stmt 1 view .LVU242
	.loc 1 95 10 is_stmt 0 view .LVU243
	vcvtsi2sdl	%ecx, %xmm8, %xmm0
	salq	$5, %rdx
	leaq	(%r14,%rdx), %rax
.LBB536:
	.loc 1 98 23 view .LVU244
	xorl	%edx, %edx
.LBE536:
	.loc 1 95 10 view .LVU245
	vdivsd	%xmm0, %xmm1, %xmm0
.LVL52:
	.loc 1 96 5 is_stmt 1 view .LVU246
.LBB537:
	.loc 1 96 25 view .LVU247
	.loc 1 98 23 is_stmt 0 view .LVU248
	vbroadcastsd	%xmm0, %ymm0
.LVL53:
	.p2align 4,,10
	.p2align 3
.L33:
	.loc 1 98 7 is_stmt 1 discriminator 3 view .LVU249
	.loc 1 98 23 is_stmt 0 discriminator 3 view .LVU250
	vmovapd	(%rax), %ymm4
	.loc 1 96 5 discriminator 3 view .LVU251
	incl	%edx
.LVL54:
	.loc 1 98 23 discriminator 3 view .LVU252
	vsubpd	%ymm0, %ymm4, %ymm1
	.loc 1 96 25 discriminator 3 view .LVU253
	addq	$32, %rax
	.loc 1 98 23 discriminator 3 view .LVU254
	vmovapd	%ymm1, -32(%rax)
	.loc 1 96 5 is_stmt 1 discriminator 3 view .LVU255
.LVL55:
	.loc 1 96 25 discriminator 3 view .LVU256
	cmpl	%edx, %r12d
	jg	.L33
.LVL56:
.L36:
	.loc 1 96 25 is_stmt 0 discriminator 3 view .LVU257
.LBE537:
.LBE511:
	.loc 1 90 3 is_stmt 1 view .LVU258
	leal	1(%r9), %eax
.LVL57:
	.loc 1 90 21 view .LVU259
	addl	%r12d, %esi
	cmpl	%eax, -372(%rbp)
	je	.L34
	movl	%eax, %r9d
	jmp	.L27
.L34:
	.loc 1 90 21 is_stmt 0 view .LVU260
.LBE547:
	.loc 1 103 3 is_stmt 1 view .LVU261
.LBB548:
	testl	%r11d, %r11d
	jne	.L69
.LVL58:
.L41:
	.loc 1 103 3 is_stmt 0 view .LVU262
.LBE548:
.LBB549:
.LBB550:
.LBB551:
	.loc 1 124 14 view .LVU263
	xorl	%ecx, %ecx
.LBE551:
	.loc 1 119 12 view .LVU264
	movl	%r15d, %edx
.LBB552:
	.loc 1 124 14 view .LVU265
	xorl	%r13d, %r13d
.LBE552:
	.loc 1 119 12 view .LVU266
	movq	%r14, %r15
.LVL59:
	.loc 1 119 12 view .LVU267
	vxorpd	%xmm4, %xmm4, %xmm4
	movl	%ecx, %r14d
.LVL60:
.L45:
.LBB553:
	.loc 1 120 25 is_stmt 1 view .LVU268
	movl	-420(%rbp), %ecx
	testl	%ecx, %ecx
	jle	.L48
	movslq	%r14d, %rbx
	movq	%rbx, %rax
	salq	$5, %rax
	addq	%r15, %rax
	.loc 1 120 14 is_stmt 0 view .LVU269
	xorl	%ecx, %ecx
.LBE553:
	.loc 1 119 12 view .LVU270
	vmovsd	%xmm4, %xmm4, %xmm3
.LVL61:
	.p2align 4,,10
	.p2align 3
.L42:
.LBB567:
	.loc 1 121 7 is_stmt 1 discriminator 3 view .LVU271
	.loc 1 121 27 is_stmt 0 discriminator 3 view .LVU272
	vmovapd	(%rax), %ymm0
.LVL62:
.LBB554:
.LBI554:
	.loc 1 41 22 is_stmt 1 discriminator 3 view .LVU273
.LBB555:
	.loc 1 42 3 discriminator 3 view .LVU274
.LBE555:
.LBE554:
	.loc 1 120 5 is_stmt 0 discriminator 3 view .LVU275
	incl	%ecx
.LVL63:
.LBB565:
.LBB563:
	.loc 1 42 24 discriminator 3 view .LVU276
	vmulpd	%ymm0, %ymm0, %ymm0
.LVL64:
	.loc 1 43 3 is_stmt 1 discriminator 3 view .LVU277
.LBB556:
.LBI556:
	.loc 1 16 22 discriminator 3 view .LVU278
.LBB557:
	.loc 1 17 3 discriminator 3 view .LVU279
	.loc 1 18 3 discriminator 3 view .LVU280
.LBB558:
	.loc 1 18 21 discriminator 3 view .LVU281
	.loc 1 19 5 discriminator 3 view .LVU282
.LBE558:
.LBE557:
.LBE556:
.LBE563:
.LBE565:
	.loc 1 120 25 is_stmt 0 discriminator 3 view .LVU283
	addq	$32, %rax
.LVL65:
.LBB566:
.LBB564:
.LBB562:
.LBB561:
.LBB559:
	.loc 1 19 7 discriminator 3 view .LVU284
	vaddsd	%xmm4, %xmm0, %xmm2
.LVL66:
	.loc 1 18 3 is_stmt 1 discriminator 3 view .LVU285
	.loc 1 18 21 discriminator 3 view .LVU286
	.loc 1 19 5 discriminator 3 view .LVU287
	.loc 1 19 7 is_stmt 0 discriminator 3 view .LVU288
	vunpckhpd	%xmm0, %xmm0, %xmm1
	vextractf64x2	$0x1, %ymm0, %xmm0
.LVL67:
	.loc 1 19 7 discriminator 3 view .LVU289
	vaddsd	%xmm2, %xmm1, %xmm1
.LVL68:
	.loc 1 18 3 is_stmt 1 discriminator 3 view .LVU290
	.loc 1 18 21 discriminator 3 view .LVU291
	.loc 1 19 5 discriminator 3 view .LVU292
	.loc 1 19 7 is_stmt 0 discriminator 3 view .LVU293
	vaddsd	%xmm1, %xmm0, %xmm1
.LVL69:
	.loc 1 18 3 is_stmt 1 discriminator 3 view .LVU294
	.loc 1 18 21 discriminator 3 view .LVU295
	.loc 1 19 5 discriminator 3 view .LVU296
	.loc 1 18 3 discriminator 3 view .LVU297
	.loc 1 18 21 discriminator 3 view .LVU298
.LBE559:
	.loc 1 21 3 discriminator 3 view .LVU299
.LBB560:
	.loc 1 19 7 is_stmt 0 discriminator 3 view .LVU300
	vunpckhpd	%xmm0, %xmm0, %xmm0
	vaddsd	%xmm1, %xmm0, %xmm0
.LBE560:
.LBE561:
.LBE562:
.LBE564:
.LBE566:
	.loc 1 121 12 discriminator 3 view .LVU301
	vaddsd	%xmm0, %xmm3, %xmm3
.LVL70:
	.loc 1 120 5 is_stmt 1 discriminator 3 view .LVU302
	.loc 1 120 25 discriminator 3 view .LVU303
	cmpl	%ecx, %r12d
	jg	.L42
.LBE567:
	.loc 1 123 5 view .LVU304
	vucomisd	%xmm3, %xmm4
	ja	.L105
	.loc 1 123 16 is_stmt 0 view .LVU305
	vsqrtsd	%xmm3, %xmm3, %xmm1
.LVL71:
	.loc 1 124 5 is_stmt 1 view .LVU306
.LBB568:
	.loc 1 124 25 view .LVU307
.L44:
	.loc 1 124 25 is_stmt 0 view .LVU308
	salq	$5, %rbx
	.loc 1 126 23 view .LVU309
	vbroadcastsd	%xmm1, %ymm1
	leaq	(%r15,%rbx), %rax
	.loc 1 124 14 view .LVU310
	xorl	%ecx, %ecx
.LVL72:
	.p2align 4,,10
	.p2align 3
.L47:
	.loc 1 126 7 is_stmt 1 discriminator 3 view .LVU311
	.loc 1 126 23 is_stmt 0 discriminator 3 view .LVU312
	vmovapd	(%rax), %ymm5
	.loc 1 124 5 discriminator 3 view .LVU313
	incl	%ecx
.LVL73:
	.loc 1 126 23 discriminator 3 view .LVU314
	vdivpd	%ymm1, %ymm5, %ymm0
	.loc 1 124 25 discriminator 3 view .LVU315
	addq	$32, %rax
	.loc 1 126 23 discriminator 3 view .LVU316
	vmovapd	%ymm0, -32(%rax)
	.loc 1 124 5 is_stmt 1 discriminator 3 view .LVU317
.LVL74:
	.loc 1 124 25 discriminator 3 view .LVU318
	cmpl	%ecx, %r12d
	jg	.L47
.LVL75:
.L48:
	.loc 1 124 25 is_stmt 0 discriminator 3 view .LVU319
.LBE568:
.LBE550:
	.loc 1 118 3 is_stmt 1 view .LVU320
	incl	%r13d
.LVL76:
	.loc 1 118 21 view .LVU321
	addl	%r12d, %r14d
	cmpl	%r13d, -372(%rbp)
	jg	.L45
.LBE549:
.LBB571:
.LBB572:
.LBB573:
.LBB574:
.LBB575:
.LBB576:
.LBB577:
.LBB578:
	.loc 1 152 57 is_stmt 0 view .LVU322
	leal	(%r12,%r12), %eax
	leal	(%rax,%r12), %ebx
	movl	%ebx, -428(%rbp)
	movl	-372(%rbp), %ebx
	movl	%eax, -440(%rbp)
	leal	(%rbx,%rbx,2), %ebx
	movl	%edx, -452(%rbp)
	movl	$3, -436(%rbp)
	movl	$5, -424(%rbp)
.LBE578:
.LBE577:
.LBE576:
.LBE575:
.LBE574:
.LBE573:
.LBE572:
	.loc 1 142 12 view .LVU323
	movl	$0, -448(%rbp)
	movl	%ebx, -432(%rbp)
	leal	-3(%r12), %ebx
	movl	%ebx, -444(%rbp)
.LBE571:
.LBB739:
	movq	%r15, %r14
.LVL77:
	.loc 1 142 12 view .LVU324
.LBE739:
.LBB740:
	.loc 1 142 23 is_stmt 1 view .LVU325
	leal	-2(%r12), %r13d
	leal	-2(%rax), %r11d
	leal	-1(%r12), %r10d
	leal	-1(%rax), %ebx
.LVL78:
.L50:
.LBB737:
.LBB735:
.LBB616:
.LBB617:
.LBB618:
	.loc 1 181 22 is_stmt 0 view .LVU326
	movl	-424(%rbp), %eax
	movl	$0, -404(%rbp)
	leal	-5(%rax), %edx
	movl	%edx, -392(%rbp)
	movl	%edx, -380(%rbp)
	leal	-4(%rax), %edx
	subl	$3, %eax
	movl	%edx, -384(%rbp)
	movl	%eax, -388(%rbp)
	movl	-452(%rbp), %edx
	movl	-372(%rbp), %eax
	movl	%edx, -416(%rbp)
	addl	%edx, %eax
	movl	%eax, -408(%rbp)
	movl	$2, %r8d
	.p2align 4,,10
	.p2align 3
.L68:
.LBE618:
.LBE617:
.LBE616:
	.loc 1 144 7 is_stmt 1 view .LVU327
.LVL79:
	.loc 1 145 7 view .LVU328
	.loc 1 146 7 view .LVU329
.LBB714:
	.loc 1 146 27 view .LVU330
	movl	-420(%rbp), %eax
	testl	%eax, %eax
	jle	.L73
	movl	-404(%rbp), %eax
	movl	-440(%rbp), %esi
.LBE714:
	.loc 1 145 17 is_stmt 0 view .LVU331
	vxorpd	%xmm6, %xmm6, %xmm6
	movl	%r8d, -412(%rbp)
	leal	3(%rax), %edx
	movl	-444(%rbp), %r8d
.LBB715:
	.loc 1 146 27 view .LVU332
	movl	-436(%rbp), %eax
	xorl	%ecx, %ecx
.LBE715:
	.loc 1 145 17 view .LVU333
	vmovapd	%ymm6, -80(%rbp)
	vmovapd	%ymm6, -208(%rbp)
	vmovapd	%ymm6, %ymm5
	vmovapd	%ymm6, -336(%rbp)
	vmovapd	%ymm6, -176(%rbp)
	vmovapd	%ymm6, -144(%rbp)
	vmovapd	%ymm6, %ymm3
	vmovapd	%ymm6, -304(%rbp)
	vmovapd	%ymm6, -240(%rbp)
	vmovapd	%ymm6, -272(%rbp)
	vmovapd	%ymm6, %ymm4
	vmovapd	%ymm6, -368(%rbp)
	vmovapd	%ymm6, -112(%rbp)
	vmovapd	%ymm6, %ymm13
	vmovapd	%ymm6, %ymm0
	vmovapd	%ymm6, %ymm14
	vmovapd	%ymm6, %ymm15
	vmovapd	%ymm6, %ymm16
	vmovapd	%ymm6, %ymm1
	vmovapd	%ymm6, %ymm17
	vmovapd	%ymm6, %ymm18
	vmovapd	%ymm6, %ymm19
	vmovapd	%ymm6, %ymm2
	vmovapd	%ymm6, %ymm20
	vmovapd	%ymm6, %ymm21
	vmovapd	%ymm6, %ymm22
	vmovapd	%ymm6, %ymm23
	vmovapd	%ymm6, %ymm24
	vmovapd	%ymm6, %ymm25
	vmovapd	%ymm6, %ymm26
	vmovapd	%ymm6, %ymm27
	vmovapd	%ymm6, %ymm28
	vmovapd	%ymm6, %ymm29
	vmovapd	%ymm6, %ymm30
	vmovapd	%ymm6, %ymm31
.LBB716:
	.loc 1 146 16 view .LVU334
	xorl	%edi, %edi
	leal	-3(%rsi), %r9d
.LVL80:
	.p2align 4,,10
	.p2align 3
.L58:
.LBB615:
	.loc 1 147 29 is_stmt 1 view .LVU335
.LBB611:
	.loc 1 148 11 view .LVU336
#APP
# 148 "cp.cc" 1
	# loop starts here
# 0 "" 2
	.loc 1 149 11 view .LVU337
#NO_APP
.LBB607:
	cmpl	%ecx, %r12d
	jle	.L54
.LBB603:
	.loc 1 150 13 view .LVU338
.LVL81:
.LBB579:
.LBI579:
	.loc 4 1043 7 view .LVU339
	.loc 4 1043 7 is_stmt 0 view .LVU340
.LBE579:
	.loc 1 150 52 view .LVU341
	leal	-3(%rax), %esi
	movslq	%esi, %rsi
	salq	$5, %rsi
	vmovapd	(%r14,%rsi), %ymm12
.LVL82:
	.loc 1 151 13 is_stmt 1 view .LVU342
.LBB580:
.LBI580:
	.loc 4 1043 7 view .LVU343
	.loc 4 1043 7 is_stmt 0 view .LVU344
.LBE580:
	.loc 1 151 57 view .LVU345
	leal	(%r8,%rax), %esi
	movslq	%esi, %rsi
	salq	$5, %rsi
	vmovapd	(%r14,%rsi), %ymm11
.LVL83:
	.loc 1 152 13 is_stmt 1 view .LVU346
.LBB581:
.LBI581:
	.loc 4 1043 7 view .LVU347
	.loc 4 1043 7 is_stmt 0 view .LVU348
.LBE581:
	.loc 1 152 61 view .LVU349
	leal	(%r9,%rax), %esi
	movslq	%esi, %rsi
	salq	$5, %rsi
	vmovapd	(%r14,%rsi), %ymm8
.LVL84:
	.loc 1 154 13 is_stmt 1 view .LVU350
.LBB582:
.LBI582:
	.loc 4 1043 7 view .LVU351
	.loc 4 1043 7 is_stmt 0 view .LVU352
.LBE582:
	.loc 1 154 52 view .LVU353
	leal	-3(%rdx), %esi
	movslq	%esi, %rsi
	salq	$5, %rsi
	vmovapd	(%r14,%rsi), %ymm10
.LVL85:
	.loc 1 155 13 is_stmt 1 view .LVU354
.LBB583:
.LBI583:
	.loc 4 1043 7 view .LVU355
	.loc 4 1043 7 is_stmt 0 view .LVU356
.LBE583:
	.loc 1 155 57 view .LVU357
	leal	(%r8,%rdx), %esi
	movslq	%esi, %rsi
	salq	$5, %rsi
	vmovapd	(%r14,%rsi), %ymm9
.LVL86:
	.loc 1 156 13 is_stmt 1 view .LVU358
.LBB584:
.LBI584:
	.loc 4 1043 7 view .LVU359
	.loc 4 1043 7 is_stmt 0 view .LVU360
.LBE584:
	.loc 1 156 61 view .LVU361
	leal	(%r9,%rdx), %esi
	movslq	%esi, %rsi
	salq	$5, %rsi
	vmovapd	(%r14,%rsi), %ymm7
.LVL87:
	.loc 1 158 13 is_stmt 1 view .LVU362
	.loc 1 159 26 is_stmt 0 view .LVU363
	vfmadd231pd	%ymm9, %ymm12, %ymm5
	.loc 1 162 26 view .LVU364
	vfmadd231pd	%ymm9, %ymm11, %ymm2
	.loc 1 164 26 view .LVU365
	vfmadd231pd	%ymm10, %ymm8, %ymm0
	.loc 1 165 26 view .LVU366
	vfmadd213pd	-272(%rbp), %ymm8, %ymm9
.LVL88:
	.loc 1 166 26 view .LVU367
	vfmadd213pd	-176(%rbp), %ymm7, %ymm8
.LVL89:
	.loc 1 158 26 view .LVU368
	vfmadd231pd	%ymm10, %ymm12, %ymm6
.LVL90:
	.loc 1 159 13 is_stmt 1 view .LVU369
	.loc 1 160 13 view .LVU370
	.loc 1 160 26 is_stmt 0 view .LVU371
	vfmadd231pd	%ymm7, %ymm12, %ymm4
	.loc 1 161 13 is_stmt 1 view .LVU372
	.loc 1 161 26 is_stmt 0 view .LVU373
	vfmadd231pd	%ymm10, %ymm11, %ymm3
	.loc 1 162 13 is_stmt 1 view .LVU374
	.loc 1 163 13 view .LVU375
	.loc 1 163 26 is_stmt 0 view .LVU376
	vfmadd231pd	%ymm7, %ymm11, %ymm1
	.loc 1 164 13 is_stmt 1 view .LVU377
	.loc 1 165 13 view .LVU378
	.loc 1 165 26 is_stmt 0 view .LVU379
	vmovapd	%ymm9, -272(%rbp)
	.loc 1 166 13 is_stmt 1 view .LVU380
	.loc 1 166 26 is_stmt 0 view .LVU381
	vmovapd	%ymm8, -176(%rbp)
.LVL91:
.L54:
	.loc 1 166 26 view .LVU382
.LBE603:
.LBE607:
	.loc 1 168 11 is_stmt 1 view .LVU383
#APP
# 168 "cp.cc" 1
	# loop ends here
# 0 "" 2
#NO_APP
.LBE611:
	.loc 1 147 9 view .LVU384
.LVL92:
	.loc 1 147 29 view .LVU385
.LBB612:
	.loc 1 148 11 view .LVU386
#APP
# 148 "cp.cc" 1
	# loop starts here
# 0 "" 2
	.loc 1 149 11 view .LVU387
#NO_APP
.LBB608:
	leal	1(%rcx), %esi
	cmpl	%esi, %r12d
	jle	.L55
.LBB604:
	.loc 1 150 13 view .LVU388
.LVL93:
.LBB585:
	.loc 4 1043 7 view .LVU389
	.loc 4 1043 7 is_stmt 0 view .LVU390
.LBE585:
	.loc 1 150 52 view .LVU391
	leal	-2(%rax), %esi
	movslq	%esi, %rsi
	salq	$5, %rsi
	vmovapd	(%r14,%rsi), %ymm12
.LVL94:
	.loc 1 151 13 is_stmt 1 view .LVU392
.LBB586:
	.loc 4 1043 7 view .LVU393
	.loc 4 1043 7 is_stmt 0 view .LVU394
.LBE586:
	.loc 1 151 57 view .LVU395
	leal	(%rax,%r13), %esi
	movslq	%esi, %rsi
	salq	$5, %rsi
	vmovapd	(%r14,%rsi), %ymm11
.LVL95:
	.loc 1 152 13 is_stmt 1 view .LVU396
.LBB587:
	.loc 4 1043 7 view .LVU397
	.loc 4 1043 7 is_stmt 0 view .LVU398
.LBE587:
	.loc 1 152 61 view .LVU399
	leal	(%r11,%rax), %esi
	movslq	%esi, %rsi
	salq	$5, %rsi
	vmovapd	(%r14,%rsi), %ymm8
.LVL96:
	.loc 1 154 13 is_stmt 1 view .LVU400
.LBB588:
	.loc 4 1043 7 view .LVU401
	.loc 4 1043 7 is_stmt 0 view .LVU402
.LBE588:
	.loc 1 154 52 view .LVU403
	leal	-2(%rdx), %esi
	movslq	%esi, %rsi
	salq	$5, %rsi
	vmovapd	(%r14,%rsi), %ymm10
.LVL97:
	.loc 1 155 13 is_stmt 1 view .LVU404
.LBB589:
	.loc 4 1043 7 view .LVU405
	.loc 4 1043 7 is_stmt 0 view .LVU406
.LBE589:
	.loc 1 155 57 view .LVU407
	leal	(%rdx,%r13), %esi
	movslq	%esi, %rsi
	salq	$5, %rsi
	vmovapd	(%r14,%rsi), %ymm9
.LVL98:
	.loc 1 156 13 is_stmt 1 view .LVU408
.LBB590:
	.loc 4 1043 7 view .LVU409
	.loc 4 1043 7 is_stmt 0 view .LVU410
.LBE590:
	.loc 1 156 61 view .LVU411
	leal	(%r11,%rdx), %esi
	movslq	%esi, %rsi
	salq	$5, %rsi
	vmovapd	(%r14,%rsi), %ymm7
.LVL99:
	.loc 1 158 13 is_stmt 1 view .LVU412
	.loc 1 159 26 is_stmt 0 view .LVU413
	vfmadd231pd	%ymm9, %ymm12, %ymm28
	.loc 1 162 26 view .LVU414
	vfmadd231pd	%ymm9, %ymm11, %ymm19
	.loc 1 164 26 view .LVU415
	vfmadd231pd	%ymm10, %ymm8, %ymm13
	.loc 1 165 26 view .LVU416
	vfmadd213pd	-240(%rbp), %ymm8, %ymm9
.LVL100:
	.loc 1 166 26 view .LVU417
	vfmadd213pd	-336(%rbp), %ymm7, %ymm8
.LVL101:
	.loc 1 158 26 view .LVU418
	vfmadd231pd	%ymm10, %ymm12, %ymm31
	.loc 1 159 13 is_stmt 1 view .LVU419
	.loc 1 160 13 view .LVU420
	.loc 1 160 26 is_stmt 0 view .LVU421
	vfmadd231pd	%ymm7, %ymm12, %ymm25
	.loc 1 161 13 is_stmt 1 view .LVU422
	.loc 1 161 26 is_stmt 0 view .LVU423
	vfmadd231pd	%ymm10, %ymm11, %ymm22
	.loc 1 162 13 is_stmt 1 view .LVU424
	.loc 1 163 13 view .LVU425
	.loc 1 163 26 is_stmt 0 view .LVU426
	vfmadd231pd	%ymm7, %ymm11, %ymm16
	.loc 1 164 13 is_stmt 1 view .LVU427
	.loc 1 165 13 view .LVU428
	.loc 1 165 26 is_stmt 0 view .LVU429
	vmovapd	%ymm9, -240(%rbp)
	.loc 1 166 13 is_stmt 1 view .LVU430
	.loc 1 166 26 is_stmt 0 view .LVU431
	vmovapd	%ymm8, -336(%rbp)
.LVL102:
.L55:
	.loc 1 166 26 view .LVU432
.LBE604:
.LBE608:
	.loc 1 168 11 is_stmt 1 view .LVU433
#APP
# 168 "cp.cc" 1
	# loop ends here
# 0 "" 2
#NO_APP
.LBE612:
	.loc 1 147 9 view .LVU434
.LVL103:
	.loc 1 147 29 view .LVU435
.LBB613:
	.loc 1 148 11 view .LVU436
#APP
# 148 "cp.cc" 1
	# loop starts here
# 0 "" 2
	.loc 1 149 11 view .LVU437
#NO_APP
.LBB609:
	leal	2(%rcx), %esi
	cmpl	%esi, %r12d
	jle	.L56
.LBB605:
	.loc 1 150 13 view .LVU438
.LVL104:
.LBB591:
	.loc 4 1043 7 view .LVU439
	.loc 4 1043 7 is_stmt 0 view .LVU440
.LBE591:
	.loc 1 150 52 view .LVU441
	leal	-1(%rax), %esi
	movslq	%esi, %rsi
	salq	$5, %rsi
	vmovapd	(%r14,%rsi), %ymm12
.LVL105:
	.loc 1 151 13 is_stmt 1 view .LVU442
.LBB592:
	.loc 4 1043 7 view .LVU443
	.loc 4 1043 7 is_stmt 0 view .LVU444
.LBE592:
	.loc 1 151 57 view .LVU445
	leal	(%r10,%rax), %esi
	movslq	%esi, %rsi
	salq	$5, %rsi
	vmovapd	(%r14,%rsi), %ymm11
.LVL106:
	.loc 1 152 13 is_stmt 1 view .LVU446
.LBB593:
	.loc 4 1043 7 view .LVU447
	.loc 4 1043 7 is_stmt 0 view .LVU448
.LBE593:
	.loc 1 152 61 view .LVU449
	leal	(%rax,%rbx), %esi
	movslq	%esi, %rsi
	salq	$5, %rsi
	vmovapd	(%r14,%rsi), %ymm8
.LVL107:
	.loc 1 154 13 is_stmt 1 view .LVU450
.LBB594:
	.loc 4 1043 7 view .LVU451
	.loc 4 1043 7 is_stmt 0 view .LVU452
.LBE594:
	.loc 1 154 52 view .LVU453
	leal	-1(%rdx), %esi
	movslq	%esi, %rsi
	salq	$5, %rsi
	vmovapd	(%r14,%rsi), %ymm10
.LVL108:
	.loc 1 155 13 is_stmt 1 view .LVU454
.LBB595:
	.loc 4 1043 7 view .LVU455
	.loc 4 1043 7 is_stmt 0 view .LVU456
.LBE595:
	.loc 1 155 57 view .LVU457
	leal	(%r10,%rdx), %esi
	movslq	%esi, %rsi
	salq	$5, %rsi
	vmovapd	(%r14,%rsi), %ymm9
.LVL109:
	.loc 1 156 13 is_stmt 1 view .LVU458
.LBB596:
	.loc 4 1043 7 view .LVU459
	.loc 4 1043 7 is_stmt 0 view .LVU460
.LBE596:
	.loc 1 156 61 view .LVU461
	leal	(%rdx,%rbx), %esi
	movslq	%esi, %rsi
	salq	$5, %rsi
	vmovapd	(%r14,%rsi), %ymm7
.LVL110:
	.loc 1 158 13 is_stmt 1 view .LVU462
	.loc 1 158 26 is_stmt 0 view .LVU463
	vfmadd231pd	%ymm10, %ymm12, %ymm30
	.loc 1 159 13 is_stmt 1 view .LVU464
	.loc 1 159 26 is_stmt 0 view .LVU465
	vfmadd231pd	%ymm9, %ymm12, %ymm27
	.loc 1 160 13 is_stmt 1 view .LVU466
	.loc 1 161 26 is_stmt 0 view .LVU467
	vfmadd231pd	%ymm10, %ymm11, %ymm21
	.loc 1 162 26 view .LVU468
	vfmadd231pd	%ymm9, %ymm11, %ymm18
	.loc 1 164 26 view .LVU469
	vfmadd213pd	-112(%rbp), %ymm8, %ymm10
.LVL111:
	.loc 1 165 26 view .LVU470
	vfmadd213pd	-304(%rbp), %ymm8, %ymm9
.LVL112:
	.loc 1 166 26 view .LVU471
	vfmadd213pd	-208(%rbp), %ymm7, %ymm8
.LVL113:
	.loc 1 160 26 view .LVU472
	vfmadd231pd	%ymm7, %ymm12, %ymm24
	.loc 1 161 13 is_stmt 1 view .LVU473
	.loc 1 162 13 view .LVU474
	.loc 1 163 13 view .LVU475
	.loc 1 163 26 is_stmt 0 view .LVU476
	vfmadd231pd	%ymm7, %ymm11, %ymm15
	.loc 1 164 13 is_stmt 1 view .LVU477
	.loc 1 164 26 is_stmt 0 view .LVU478
	vmovapd	%ymm10, -112(%rbp)
	.loc 1 165 13 is_stmt 1 view .LVU479
	.loc 1 165 26 is_stmt 0 view .LVU480
	vmovapd	%ymm9, -304(%rbp)
	.loc 1 166 13 is_stmt 1 view .LVU481
	.loc 1 166 26 is_stmt 0 view .LVU482
	vmovapd	%ymm8, -208(%rbp)
.LVL114:
.L56:
	.loc 1 166 26 view .LVU483
.LBE605:
.LBE609:
	.loc 1 168 11 is_stmt 1 view .LVU484
#APP
# 168 "cp.cc" 1
	# loop ends here
# 0 "" 2
#NO_APP
.LBE613:
	.loc 1 147 9 view .LVU485
.LVL115:
	.loc 1 147 29 view .LVU486
.LBB614:
	.loc 1 148 11 view .LVU487
#APP
# 148 "cp.cc" 1
	# loop starts here
# 0 "" 2
	.loc 1 149 11 view .LVU488
#NO_APP
.LBB610:
	leal	3(%rcx), %esi
	cmpl	%esi, %r12d
	jle	.L57
.LBB606:
	.loc 1 150 13 view .LVU489
.LVL116:
.LBB597:
	.loc 4 1043 7 view .LVU490
	.loc 4 1043 7 is_stmt 0 view .LVU491
.LBE597:
	.loc 1 150 52 view .LVU492
	movslq	%eax, %rsi
	salq	$5, %rsi
	vmovapd	(%r14,%rsi), %ymm12
.LVL117:
	.loc 1 151 13 is_stmt 1 view .LVU493
	leal	(%r12,%rax), %esi
.LVL118:
.LBB598:
	.loc 4 1043 7 view .LVU494
	.loc 4 1043 7 is_stmt 0 view .LVU495
.LBE598:
	.loc 1 151 57 view .LVU496
	movslq	%esi, %r15
	.loc 1 152 61 view .LVU497
	addl	%r12d, %esi
	movslq	%esi, %rsi
	salq	$5, %rsi
	vmovapd	(%r14,%rsi), %ymm8
	.loc 1 154 52 view .LVU498
	movslq	%edx, %rsi
	salq	$5, %rsi
	vmovapd	(%r14,%rsi), %ymm10
	.loc 1 151 57 view .LVU499
	salq	$5, %r15
	leal	(%r12,%rdx), %esi
	vmovapd	(%r14,%r15), %ymm11
.LVL119:
	.loc 1 152 13 is_stmt 1 view .LVU500
.LBB599:
	.loc 4 1043 7 view .LVU501
	.loc 4 1043 7 is_stmt 0 view .LVU502
.LBE599:
	.loc 1 154 13 is_stmt 1 view .LVU503
.LBB600:
	.loc 4 1043 7 view .LVU504
	.loc 4 1043 7 is_stmt 0 view .LVU505
.LBE600:
	.loc 1 155 13 is_stmt 1 view .LVU506
.LBB601:
	.loc 4 1043 7 view .LVU507
	.loc 4 1043 7 is_stmt 0 view .LVU508
.LBE601:
	.loc 1 155 57 view .LVU509
	movslq	%esi, %r15
	.loc 1 156 61 view .LVU510
	addl	%r12d, %esi
	movslq	%esi, %rsi
	.loc 1 155 57 view .LVU511
	salq	$5, %r15
	.loc 1 156 61 view .LVU512
	salq	$5, %rsi
	.loc 1 155 57 view .LVU513
	vmovapd	(%r14,%r15), %ymm9
.LVL120:
	.loc 1 156 13 is_stmt 1 view .LVU514
.LBB602:
	.loc 4 1043 7 view .LVU515
	.loc 4 1043 7 is_stmt 0 view .LVU516
.LBE602:
	.loc 1 156 61 view .LVU517
	vmovapd	(%r14,%rsi), %ymm7
.LVL121:
	.loc 1 158 13 is_stmt 1 view .LVU518
	.loc 1 158 26 is_stmt 0 view .LVU519
	vfmadd231pd	%ymm10, %ymm12, %ymm29
	.loc 1 159 13 is_stmt 1 view .LVU520
	.loc 1 159 26 is_stmt 0 view .LVU521
	vfmadd231pd	%ymm9, %ymm12, %ymm26
	.loc 1 160 13 is_stmt 1 view .LVU522
	.loc 1 161 26 is_stmt 0 view .LVU523
	vfmadd231pd	%ymm10, %ymm11, %ymm20
	.loc 1 162 26 view .LVU524
	vfmadd231pd	%ymm9, %ymm11, %ymm17
	.loc 1 164 26 view .LVU525
	vfmadd213pd	-368(%rbp), %ymm8, %ymm10
.LVL122:
	.loc 1 165 26 view .LVU526
	vfmadd213pd	-144(%rbp), %ymm8, %ymm9
.LVL123:
	.loc 1 166 26 view .LVU527
	vfmadd213pd	-80(%rbp), %ymm7, %ymm8
.LVL124:
	.loc 1 160 26 view .LVU528
	vfmadd231pd	%ymm7, %ymm12, %ymm23
	.loc 1 161 13 is_stmt 1 view .LVU529
	.loc 1 162 13 view .LVU530
	.loc 1 163 13 view .LVU531
	.loc 1 163 26 is_stmt 0 view .LVU532
	vfmadd231pd	%ymm7, %ymm11, %ymm14
	.loc 1 164 13 is_stmt 1 view .LVU533
	.loc 1 164 26 is_stmt 0 view .LVU534
	vmovapd	%ymm10, -368(%rbp)
	.loc 1 165 13 is_stmt 1 view .LVU535
	.loc 1 165 26 is_stmt 0 view .LVU536
	vmovapd	%ymm9, -144(%rbp)
	.loc 1 166 13 is_stmt 1 view .LVU537
	.loc 1 166 26 is_stmt 0 view .LVU538
	vmovapd	%ymm8, -80(%rbp)
.LVL125:
.L57:
	.loc 1 166 26 view .LVU539
.LBE606:
.LBE610:
	.loc 1 168 11 is_stmt 1 view .LVU540
#APP
# 168 "cp.cc" 1
	# loop ends here
# 0 "" 2
#NO_APP
.LBE614:
	.loc 1 147 9 view .LVU541
.LVL126:
	.loc 1 147 29 view .LVU542
.LBE615:
	.loc 1 146 7 view .LVU543
	incl	%edi
.LVL127:
	.loc 1 146 27 view .LVU544
	addl	$4, %ecx
	addl	$4, %eax
	addl	$4, %edx
	cmpl	%edi, -376(%rbp)
	jg	.L58
.LBE716:
.LBB717:
.LBB718:
.LBB719:
	.loc 1 174 23 is_stmt 0 view .LVU545
	vxorpd	%xmm7, %xmm7, %xmm7
	vaddpd	%ymm7, %ymm0, %ymm0
	vaddpd	%ymm7, %ymm6, %ymm6
.LVL128:
	.loc 1 174 23 view .LVU546
	vaddpd	%ymm7, %ymm5, %ymm5
	vaddpd	%ymm13, %ymm0, %ymm0
	vaddpd	%ymm7, %ymm4, %ymm4
	vaddpd	%ymm7, %ymm3, %ymm3
	vaddpd	-112(%rbp), %ymm0, %ymm0
	vaddpd	%ymm7, %ymm2, %ymm2
	vaddpd	%ymm7, %ymm1, %ymm1
	vaddpd	-368(%rbp), %ymm0, %ymm9
	vaddpd	-272(%rbp), %ymm7, %ymm0
	vaddpd	%ymm31, %ymm6, %ymm6
	vaddpd	%ymm28, %ymm5, %ymm5
	vaddpd	-240(%rbp), %ymm0, %ymm0
	vaddpd	%ymm25, %ymm4, %ymm4
	vaddpd	%ymm22, %ymm3, %ymm3
	vaddpd	-304(%rbp), %ymm0, %ymm0
	vaddpd	%ymm19, %ymm2, %ymm2
	vaddpd	%ymm16, %ymm1, %ymm1
	vaddpd	-144(%rbp), %ymm0, %ymm8
	vaddpd	-176(%rbp), %ymm7, %ymm0
	vaddpd	%ymm30, %ymm6, %ymm6
	vaddpd	%ymm27, %ymm5, %ymm5
	vaddpd	-336(%rbp), %ymm0, %ymm0
	vaddpd	%ymm24, %ymm4, %ymm4
	vaddpd	%ymm21, %ymm3, %ymm3
	vaddpd	%ymm18, %ymm2, %ymm2
	vaddpd	%ymm15, %ymm1, %ymm1
	vaddpd	-208(%rbp), %ymm0, %ymm0
	vaddpd	%ymm29, %ymm6, %ymm6
	vaddpd	%ymm26, %ymm5, %ymm5
	vaddpd	%ymm23, %ymm4, %ymm4
	vaddpd	%ymm20, %ymm3, %ymm3
	vaddpd	%ymm17, %ymm2, %ymm2
	vaddpd	%ymm14, %ymm1, %ymm1
	vaddpd	-80(%rbp), %ymm0, %ymm0
	movl	-412(%rbp), %r8d
.LVL129:
.L53:
	.loc 1 174 23 view .LVU547
.LBE719:
.LBE718:
	.loc 1 171 27 is_stmt 1 view .LVU548
.LBB729:
	.loc 1 172 29 view .LVU549
.LBB720:
	.loc 1 173 31 view .LVU550
	.loc 1 174 13 view .LVU551
	.loc 1 173 11 view .LVU552
	.loc 1 173 31 view .LVU553
	.loc 1 174 13 view .LVU554
	.loc 1 173 11 view .LVU555
	.loc 1 173 31 view .LVU556
	.loc 1 174 13 view .LVU557
	.loc 1 173 11 view .LVU558
	.loc 1 173 31 view .LVU559
	.loc 1 174 13 view .LVU560
	.loc 1 173 11 view .LVU561
	.loc 1 173 31 view .LVU562
.LBE720:
	.loc 1 172 9 view .LVU563
	.loc 1 172 29 view .LVU564
.LBB721:
	.loc 1 173 31 view .LVU565
	.loc 1 174 13 view .LVU566
	.loc 1 173 11 view .LVU567
	.loc 1 173 31 view .LVU568
	.loc 1 174 13 view .LVU569
	.loc 1 173 11 view .LVU570
	.loc 1 173 31 view .LVU571
	.loc 1 174 13 view .LVU572
	.loc 1 173 11 view .LVU573
	.loc 1 173 31 view .LVU574
	.loc 1 174 13 view .LVU575
	.loc 1 173 11 view .LVU576
	.loc 1 173 31 view .LVU577
.LBE721:
	.loc 1 172 9 view .LVU578
	.loc 1 172 29 view .LVU579
.LBB722:
	.loc 1 173 31 view .LVU580
	.loc 1 174 13 view .LVU581
	.loc 1 173 11 view .LVU582
	.loc 1 173 31 view .LVU583
	.loc 1 174 13 view .LVU584
	.loc 1 173 11 view .LVU585
	.loc 1 173 31 view .LVU586
	.loc 1 174 13 view .LVU587
	.loc 1 173 11 view .LVU588
	.loc 1 173 31 view .LVU589
	.loc 1 174 13 view .LVU590
	.loc 1 173 11 view .LVU591
	.loc 1 173 31 view .LVU592
.LBE722:
	.loc 1 172 9 view .LVU593
	.loc 1 172 29 view .LVU594
.LBE729:
	.loc 1 171 7 view .LVU595
	.loc 1 171 27 view .LVU596
.LBB730:
	.loc 1 172 29 view .LVU597
.LBB723:
	.loc 1 173 31 view .LVU598
	.loc 1 174 13 view .LVU599
	.loc 1 173 11 view .LVU600
	.loc 1 173 31 view .LVU601
	.loc 1 174 13 view .LVU602
	.loc 1 173 11 view .LVU603
	.loc 1 173 31 view .LVU604
	.loc 1 174 13 view .LVU605
	.loc 1 173 11 view .LVU606
	.loc 1 173 31 view .LVU607
	.loc 1 174 13 view .LVU608
	.loc 1 173 11 view .LVU609
	.loc 1 173 31 view .LVU610
.LBE723:
	.loc 1 172 9 view .LVU611
	.loc 1 172 29 view .LVU612
.LBB724:
	.loc 1 173 31 view .LVU613
	.loc 1 174 13 view .LVU614
	.loc 1 173 11 view .LVU615
	.loc 1 173 31 view .LVU616
	.loc 1 174 13 view .LVU617
	.loc 1 173 11 view .LVU618
	.loc 1 173 31 view .LVU619
	.loc 1 174 13 view .LVU620
	.loc 1 173 11 view .LVU621
	.loc 1 173 31 view .LVU622
	.loc 1 174 13 view .LVU623
	.loc 1 173 11 view .LVU624
	.loc 1 173 31 view .LVU625
.LBE724:
	.loc 1 172 9 view .LVU626
	.loc 1 172 29 view .LVU627
.LBB725:
	.loc 1 173 31 view .LVU628
	.loc 1 174 13 view .LVU629
	.loc 1 173 11 view .LVU630
	.loc 1 173 31 view .LVU631
	.loc 1 174 13 view .LVU632
	.loc 1 173 11 view .LVU633
	.loc 1 173 31 view .LVU634
	.loc 1 174 13 view .LVU635
	.loc 1 173 11 view .LVU636
	.loc 1 173 31 view .LVU637
	.loc 1 174 13 view .LVU638
	.loc 1 173 11 view .LVU639
	.loc 1 173 31 view .LVU640
.LBE725:
	.loc 1 172 9 view .LVU641
	.loc 1 172 29 view .LVU642
.LBE730:
	.loc 1 171 7 view .LVU643
	.loc 1 171 27 view .LVU644
.LBB731:
	.loc 1 172 29 view .LVU645
.LBB726:
	.loc 1 173 31 view .LVU646
	.loc 1 174 13 view .LVU647
	.loc 1 173 11 view .LVU648
	.loc 1 173 31 view .LVU649
	.loc 1 174 13 view .LVU650
	.loc 1 173 11 view .LVU651
	.loc 1 173 31 view .LVU652
	.loc 1 174 13 view .LVU653
	.loc 1 173 11 view .LVU654
	.loc 1 173 31 view .LVU655
	.loc 1 174 13 view .LVU656
	.loc 1 173 11 view .LVU657
	.loc 1 173 31 view .LVU658
.LBE726:
	.loc 1 172 9 view .LVU659
	.loc 1 172 29 view .LVU660
.LBB727:
	.loc 1 173 31 view .LVU661
	.loc 1 174 13 view .LVU662
	.loc 1 173 11 view .LVU663
	.loc 1 173 31 view .LVU664
	.loc 1 174 13 view .LVU665
	.loc 1 173 11 view .LVU666
	.loc 1 173 31 view .LVU667
	.loc 1 174 13 view .LVU668
	.loc 1 173 11 view .LVU669
	.loc 1 173 31 view .LVU670
	.loc 1 174 13 view .LVU671
	.loc 1 173 11 view .LVU672
	.loc 1 173 31 view .LVU673
.LBE727:
	.loc 1 172 9 view .LVU674
	.loc 1 172 29 view .LVU675
.LBB728:
	.loc 1 173 31 view .LVU676
	.loc 1 174 13 view .LVU677
	.loc 1 173 11 view .LVU678
	.loc 1 173 31 view .LVU679
	.loc 1 174 13 view .LVU680
	.loc 1 173 11 view .LVU681
	.loc 1 173 31 view .LVU682
	.loc 1 174 13 view .LVU683
	.loc 1 173 11 view .LVU684
	.loc 1 173 31 view .LVU685
	.loc 1 174 13 view .LVU686
	.loc 1 173 11 view .LVU687
	.loc 1 173 31 view .LVU688
.LBE728:
	.loc 1 172 9 view .LVU689
	.loc 1 172 29 view .LVU690
.LBE731:
	.loc 1 171 7 view .LVU691
	.loc 1 171 27 view .LVU692
	.loc 1 171 27 is_stmt 0 view .LVU693
.LBE717:
.LBB732:
	.loc 1 179 27 is_stmt 1 view .LVU694
.LBB710:
	.loc 1 180 29 view .LVU695
.LBB700:
	.loc 1 181 11 view .LVU696
	.loc 1 182 11 view .LVU697
	.loc 1 184 11 is_stmt 0 view .LVU698
	movl	-380(%rbp), %eax
	leal	-2(%r8), %edx
.LVL130:
	.loc 1 184 11 is_stmt 1 view .LVU699
	cmpl	%edx, %eax
	cmovl	%edx, %eax
	cmpl	%eax, -372(%rbp)
	jg	.L106
.L59:
.LBE700:
	.loc 1 180 9 view .LVU700
.LVL131:
	.loc 1 180 29 view .LVU701
.LBB701:
	.loc 1 181 11 view .LVU702
	.loc 1 182 11 view .LVU703
	.loc 1 184 11 is_stmt 0 view .LVU704
	movl	-380(%rbp), %edi
	leal	-1(%r8), %eax
.LVL132:
	.loc 1 184 11 is_stmt 1 view .LVU705
	cmpl	%eax, %edi
	movl	%edi, %ecx
	cmovl	%eax, %ecx
	cmpl	%ecx, -372(%rbp)
	jg	.L107
.L60:
.LBE701:
	.loc 1 180 9 view .LVU706
.LVL133:
	.loc 1 180 29 view .LVU707
.LBB702:
	.loc 1 181 11 view .LVU708
	.loc 1 182 11 view .LVU709
	.loc 1 184 11 view .LVU710
	movl	-380(%rbp), %edi
	cmpl	%r8d, %edi
	movl	%edi, %ecx
	cmovl	%r8d, %ecx
	cmpl	%ecx, -372(%rbp)
	jg	.L108
.L61:
	.loc 1 184 11 is_stmt 0 view .LVU711
.LBE702:
	.loc 1 180 9 is_stmt 1 view .LVU712
.LVL134:
	.loc 1 180 29 view .LVU713
.LBE710:
	.loc 1 179 7 view .LVU714
	.loc 1 179 27 view .LVU715
.LBB711:
	.loc 1 180 29 view .LVU716
.LBB703:
	.loc 1 181 11 view .LVU717
	.loc 1 182 11 view .LVU718
	.loc 1 184 11 view .LVU719
	movl	-384(%rbp), %edi
	cmpl	%edx, %edi
	movl	%edi, %ecx
	cmovl	%edx, %ecx
	cmpl	%ecx, -372(%rbp)
	jg	.L109
.L62:
	.loc 1 184 11 is_stmt 0 view .LVU720
.LBE703:
	.loc 1 180 9 is_stmt 1 view .LVU721
.LVL135:
	.loc 1 180 29 view .LVU722
.LBB704:
	.loc 1 181 11 view .LVU723
	.loc 1 182 11 view .LVU724
	.loc 1 184 11 view .LVU725
	movl	-384(%rbp), %edi
	cmpl	%eax, %edi
	movl	%edi, %ecx
	cmovl	%eax, %ecx
	cmpl	%ecx, -372(%rbp)
	jg	.L110
.L63:
	.loc 1 184 11 is_stmt 0 view .LVU726
.LBE704:
	.loc 1 180 9 is_stmt 1 view .LVU727
.LVL136:
	.loc 1 180 29 view .LVU728
.LBB705:
	.loc 1 181 11 view .LVU729
	.loc 1 182 11 view .LVU730
	.loc 1 184 11 view .LVU731
	movl	-384(%rbp), %edi
	cmpl	%r8d, %edi
	movl	%edi, %ecx
	cmovl	%r8d, %ecx
	cmpl	%ecx, -372(%rbp)
	jg	.L111
.L64:
	.loc 1 184 11 is_stmt 0 view .LVU732
.LBE705:
	.loc 1 180 9 is_stmt 1 view .LVU733
.LVL137:
	.loc 1 180 29 view .LVU734
.LBE711:
	.loc 1 179 7 view .LVU735
	.loc 1 179 27 view .LVU736
.LBB712:
	.loc 1 180 29 view .LVU737
.LBB706:
	.loc 1 181 11 view .LVU738
	.loc 1 182 11 view .LVU739
	.loc 1 184 11 view .LVU740
	movl	-388(%rbp), %edi
	cmpl	%edx, %edi
	cmovge	%edi, %edx
.LVL138:
	.loc 1 184 11 is_stmt 0 view .LVU741
	cmpl	%edx, -372(%rbp)
	jg	.L112
.L65:
	.loc 1 184 11 view .LVU742
.LBE706:
	.loc 1 180 9 is_stmt 1 view .LVU743
.LVL139:
	.loc 1 180 29 view .LVU744
.LBB707:
	.loc 1 181 11 view .LVU745
	.loc 1 182 11 view .LVU746
	.loc 1 184 11 view .LVU747
	movl	-388(%rbp), %edi
	cmpl	%eax, %edi
	cmovge	%edi, %eax
.LVL140:
	.loc 1 184 11 is_stmt 0 view .LVU748
	cmpl	%eax, -372(%rbp)
	jg	.L113
.L66:
	.loc 1 184 11 view .LVU749
.LBE707:
	.loc 1 180 9 is_stmt 1 view .LVU750
.LVL141:
	.loc 1 180 29 view .LVU751
.LBB708:
	.loc 1 181 11 view .LVU752
	.loc 1 182 11 view .LVU753
	.loc 1 184 11 view .LVU754
	movl	-388(%rbp), %eax
	cmpl	%r8d, %eax
	cmovl	%r8d, %eax
	cmpl	%eax, -372(%rbp)
	jg	.L114
.L67:
	.loc 1 184 11 is_stmt 0 view .LVU755
.LBE708:
	.loc 1 180 9 is_stmt 1 view .LVU756
.LVL142:
	.loc 1 180 29 view .LVU757
.LBE712:
	.loc 1 179 7 view .LVU758
	.loc 1 179 27 view .LVU759
	.loc 1 179 27 is_stmt 0 view .LVU760
.LBE732:
.LBE735:
	.loc 1 143 5 is_stmt 1 view .LVU761
	.loc 1 143 25 view .LVU762
	movl	-432(%rbp), %eax
	movl	-428(%rbp), %edx
	addl	$3, %r8d
.LVL143:
	.loc 1 143 25 is_stmt 0 view .LVU763
	addl	%eax, -408(%rbp)
	addl	%eax, -416(%rbp)
	addl	%eax, -392(%rbp)
	addl	%edx, -404(%rbp)
	cmpl	%r8d, -424(%rbp)
	jne	.L68
.LBE737:
	.loc 1 142 3 is_stmt 1 discriminator 2 view .LVU764
	incl	-448(%rbp)
.LVL144:
	.loc 1 142 23 is_stmt 0 discriminator 2 view .LVU765
	addl	$3, -424(%rbp)
	addl	$3, -452(%rbp)
	addl	%edx, -436(%rbp)
	.loc 1 142 3 discriminator 2 view .LVU766
	movl	-448(%rbp), %eax
.LVL145:
	.loc 1 142 23 is_stmt 1 discriminator 2 view .LVU767
	cmpl	%eax, -456(%rbp)
	jg	.L50
.LVL146:
.L26:
	.loc 1 142 23 is_stmt 0 discriminator 2 view .LVU768
.LBE740:
.LBB741:
.LBI741:
	.loc 4 678 7 is_stmt 1 view .LVU769
.LBB742:
.LBI742:
	.loc 4 276 7 view .LVU770
	.loc 4 276 7 is_stmt 0 view .LVU771
.LBE742:
.LBB743:
.LBI743:
	.loc 5 845 5 is_stmt 1 view .LVU772
	.loc 5 845 5 is_stmt 0 view .LVU773
.LBE743:
.LBB744:
.LBI744:
	.loc 4 333 7 is_stmt 1 view .LVU774
.LBB745:
.LBB746:
.LBI746:
	.loc 4 350 7 view .LVU775
.LBB747:
	.loc 4 353 2 is_stmt 0 view .LVU776
	testq	%r14, %r14
	je	.L115
.LVL147:
.LBB748:
.LBI748:
	.loc 5 495 7 is_stmt 1 view .LVU777
.LBB749:
.LBB750:
.LBI750:
	.loc 3 132 7 view .LVU778
.LBE750:
.LBE749:
.LBE748:
.LBE747:
.LBE746:
	.loc 4 336 35 is_stmt 0 view .LVU779
	movq	-464(%rbp), %rsi
.LBB766:
.LBB763:
.LBB760:
.LBB757:
.LBB754:
.LBB751:
	.loc 3 137 23 view .LVU780
	movl	$32, %edx
.LBE751:
.LBE754:
.LBE757:
.LBE760:
.LBE763:
.LBE766:
	.loc 4 336 35 view .LVU781
	subq	%r14, %rsi
.LVL148:
.LBB767:
.LBB764:
.LBB761:
.LBB758:
.LBB755:
.LBB752:
	.loc 3 137 23 view .LVU782
	movq	%r14, %rdi
	vzeroupper
.LBE752:
.LBE755:
.LBE758:
.LBE761:
.LBE764:
.LBE767:
.LBE745:
.LBE744:
.LBE741:
	.loc 1 195 1 view .LVU783
	addq	$424, %rsp
	popq	%rbx
	popq	%r12
.LVL149:
	.loc 1 195 1 view .LVU784
	popq	%r13
	.cfi_remember_state
	.cfi_def_cfa 13, 0
	popq	%r14
.LVL150:
	.loc 1 195 1 view .LVU785
	popq	%r15
	popq	%rbp
	leaq	-16(%r13), %rsp
	.cfi_def_cfa 7, 16
	popq	%r13
	.cfi_def_cfa_offset 8
.LBB771:
.LBB770:
.LBB769:
.LBB768:
.LBB765:
.LBB762:
.LBB759:
.LBB756:
.LBB753:
	.loc 3 137 23 view .LVU786
	jmp	_ZdlPvmSt11align_val_t@PLT
.LVL151:
.L6:
	.cfi_restore_state
	.loc 3 137 23 view .LVU787
	movl	-372(%rbp), %eax
.LBE753:
.LBE756:
.LBE759:
.LBE762:
.LBE765:
.LBE768:
.LBE769:
.LBE770:
.LBE771:
.LBB772:
.LBB508:
.LBB504:
	.loc 1 79 53 view .LVU788
	movl	%r13d, -80(%rbp)
	cmpl	%r13d, %eax
	cmovg	%r13d, %eax
	movl	-420(%rbp), %esi
	movl	%eax, %r11d
.LBE504:
.LBE508:
	.loc 1 75 21 view .LVU789
	xorl	%r9d, %r9d
	movl	$3, %r10d
	.loc 1 75 12 view .LVU790
	xorl	%edi, %edi
.LBB509:
.LBB505:
	.loc 1 79 53 view .LVU791
	vxorpd	%xmm1, %xmm1, %xmm1
.LVL152:
.L19:
	.loc 1 79 53 view .LVU792
.LBE505:
	.loc 1 76 25 is_stmt 1 view .LVU793
	testl	%esi, %esi
	jle	.L16
	movslq	%r9d, %rax
	salq	$5, %rax
	addq	%r14, %rax
	movl	%r10d, %r8d
	xorl	%edx, %edx
	.loc 1 76 14 is_stmt 0 view .LVU794
	xorl	%ecx, %ecx
	jmp	.L17
.LVL153:
.L8:
.LBB506:
	.loc 1 79 73 view .LVU795
	leal	-3(%r8), %r13d
	movslq	%r13d, %r13
	.loc 1 79 53 view .LVU796
	vcvtss2sd	(%rbx,%r13,4), %xmm8, %xmm0
.L11:
	.loc 1 79 53 view .LVU797
	leal	1(%rdx), %r13d
	.loc 1 79 31 view .LVU798
	vmovsd	%xmm0, (%rax)
	.loc 1 77 7 is_stmt 1 view .LVU799
.LVL154:
	.loc 1 77 27 view .LVU800
	.loc 1 78 9 view .LVU801
	.loc 1 79 11 view .LVU802
	.loc 1 79 53 is_stmt 0 view .LVU803
	vmovsd	%xmm1, %xmm1, %xmm0
	cmpl	%esi, %r13d
	jge	.L10
	.loc 1 79 73 view .LVU804
	leal	-2(%r8), %r13d
	movslq	%r13d, %r13
	.loc 1 79 53 view .LVU805
	vcvtss2sd	(%rbx,%r13,4), %xmm8, %xmm0
.L10:
	.loc 1 79 53 view .LVU806
	leal	2(%rdx), %r13d
	.loc 1 79 31 view .LVU807
	vmovsd	%xmm0, 8(%rax)
	.loc 1 77 7 is_stmt 1 view .LVU808
.LVL155:
	.loc 1 77 27 view .LVU809
	.loc 1 78 9 view .LVU810
	.loc 1 79 11 view .LVU811
	.loc 1 79 53 is_stmt 0 view .LVU812
	vmovsd	%xmm1, %xmm1, %xmm0
	cmpl	%esi, %r13d
	jge	.L13
	.loc 1 79 73 view .LVU813
	leal	-1(%r8), %r13d
	movslq	%r13d, %r13
	.loc 1 79 53 view .LVU814
	vcvtss2sd	(%rbx,%r13,4), %xmm8, %xmm0
.L13:
	.loc 1 79 53 view .LVU815
	leal	3(%rdx), %r13d
	.loc 1 79 31 view .LVU816
	vmovsd	%xmm0, 16(%rax)
	.loc 1 77 7 is_stmt 1 view .LVU817
.LVL156:
	.loc 1 77 27 view .LVU818
	.loc 1 78 9 view .LVU819
	.loc 1 79 11 view .LVU820
	.loc 1 79 53 is_stmt 0 view .LVU821
	cmpl	%esi, %r13d
	jge	.L116
	.loc 1 79 73 view .LVU822
	movslq	%r8d, %r13
	.loc 1 79 53 view .LVU823
	vcvtss2sd	(%rbx,%r13,4), %xmm8, %xmm0
	vmovsd	%xmm0, 24(%rax)
.LVL157:
.L102:
	.loc 1 77 7 is_stmt 1 view .LVU824
	.loc 1 77 27 view .LVU825
.LBE506:
	.loc 1 76 5 view .LVU826
	incl	%ecx
.LVL158:
	.loc 1 76 25 view .LVU827
	addl	$4, %edx
	addq	$32, %rax
	addl	$4, %r8d
	cmpl	%ecx, %r12d
	jle	.L16
.LVL159:
.L17:
.LBB507:
	.loc 1 77 27 view .LVU828
	.loc 1 78 9 view .LVU829
	.loc 1 79 11 view .LVU830
	.loc 1 79 53 is_stmt 0 view .LVU831
	cmpl	%esi, %edx
	jl	.L8
	vmovsd	%xmm1, %xmm1, %xmm0
	jmp	.L11
.LVL160:
.L116:
	.loc 1 82 31 view .LVU832
	movq	$0x000000000, 24(%rax)
	.loc 1 77 7 is_stmt 1 view .LVU833
.LVL161:
	.loc 1 77 27 view .LVU834
.LBE507:
	.loc 1 76 5 view .LVU835
	jmp	.L102
.LVL162:
.L16:
	.loc 1 76 5 is_stmt 0 view .LVU836
.LBE509:
	.loc 1 75 3 is_stmt 1 view .LVU837
	incl	%edi
.LVL163:
	.loc 1 75 21 view .LVU838
	addl	%esi, %r10d
	addl	%r12d, %r9d
	cmpl	%r11d, %edi
	jl	.L19
	movl	-80(%rbp), %r13d
	cmpl	%edi, %r13d
	jg	.L7
.LVL164:
	.loc 1 75 21 is_stmt 0 view .LVU839
.LBE772:
.LBB773:
	.loc 1 90 21 is_stmt 1 view .LVU840
.LBE773:
.LBB774:
	.loc 1 103 15 is_stmt 0 view .LVU841
	movl	-420(%rbp), %r11d
	andl	$3, %r11d
	jmp	.L70
.LVL165:
	.p2align 4,,10
	.p2align 3
.L114:
	.loc 1 103 15 view .LVU842
.LBE774:
.LBB775:
.LBB738:
.LBB736:
.LBB733:
.LBB713:
.LBB709:
.LBB619:
.LBB620:
.LBB621:
	.loc 1 18 21 is_stmt 1 view .LVU843
	.loc 1 19 5 view .LVU844
	.loc 1 19 7 is_stmt 0 view .LVU845
	vxorpd	%xmm2, %xmm2, %xmm2
	vaddsd	%xmm0, %xmm2, %xmm2
.LVL166:
	.loc 1 18 3 is_stmt 1 view .LVU846
	.loc 1 18 21 view .LVU847
	.loc 1 19 5 view .LVU848
	.loc 1 19 7 is_stmt 0 view .LVU849
	vunpckhpd	%xmm0, %xmm0, %xmm1
	vextractf64x2	$0x1, %ymm0, %xmm0
	vaddsd	%xmm2, %xmm1, %xmm1
.LVL167:
	.loc 1 18 3 is_stmt 1 view .LVU850
	.loc 1 18 21 view .LVU851
	.loc 1 19 5 view .LVU852
.LBE621:
.LBE620:
.LBE619:
	.loc 1 185 22 is_stmt 0 view .LVU853
	movslq	-408(%rbp), %rax
	.loc 1 185 39 view .LVU854
	movq	-400(%rbp), %rdx
.LBB677:
.LBB654:
.LBB622:
	.loc 1 19 7 view .LVU855
	vaddsd	%xmm1, %xmm0, %xmm1
.LVL168:
	.loc 1 18 3 is_stmt 1 view .LVU856
	.loc 1 18 21 view .LVU857
	.loc 1 19 5 view .LVU858
	.loc 1 18 3 view .LVU859
	.loc 1 18 21 view .LVU860
.LBE622:
	.loc 1 21 3 view .LVU861
.LBB623:
	.loc 1 19 7 is_stmt 0 view .LVU862
	vunpckhpd	%xmm0, %xmm0, %xmm0
	vaddsd	%xmm1, %xmm0, %xmm0
.LBE623:
.LBE654:
.LBE677:
	.loc 1 185 39 view .LVU863
	vcvtsd2ss	%xmm0, %xmm0, %xmm0
	vmovss	%xmm0, (%rdx,%rax,4)
	jmp	.L67
.LVL169:
.L113:
.LBB678:
.LBB655:
.LBB624:
	.loc 1 18 21 is_stmt 1 view .LVU864
	.loc 1 19 5 view .LVU865
	.loc 1 19 7 is_stmt 0 view .LVU866
	vxorpd	%xmm2, %xmm2, %xmm2
	vaddsd	%xmm8, %xmm2, %xmm2
.LVL170:
	.loc 1 18 3 is_stmt 1 view .LVU867
	.loc 1 18 21 view .LVU868
	.loc 1 19 5 view .LVU869
	.loc 1 19 7 is_stmt 0 view .LVU870
	vunpckhpd	%xmm8, %xmm8, %xmm1
	vextractf64x2	$0x1, %ymm8, %xmm8
	vaddsd	%xmm2, %xmm1, %xmm1
.LVL171:
	.loc 1 18 3 is_stmt 1 view .LVU871
	.loc 1 18 21 view .LVU872
	.loc 1 19 5 view .LVU873
.LBE624:
.LBE655:
.LBE678:
	.loc 1 185 22 is_stmt 0 view .LVU874
	movslq	-416(%rbp), %rax
	.loc 1 185 39 view .LVU875
	movq	-400(%rbp), %rdx
.LBB679:
.LBB656:
.LBB625:
	.loc 1 19 7 view .LVU876
	vaddsd	%xmm1, %xmm8, %xmm1
.LVL172:
	.loc 1 18 3 is_stmt 1 view .LVU877
	.loc 1 18 21 view .LVU878
	.loc 1 19 5 view .LVU879
	.loc 1 18 3 view .LVU880
	.loc 1 18 21 view .LVU881
.LBE625:
	.loc 1 21 3 view .LVU882
.LBB626:
	.loc 1 19 7 is_stmt 0 view .LVU883
	vunpckhpd	%xmm8, %xmm8, %xmm8
	vaddsd	%xmm1, %xmm8, %xmm1
.LBE626:
.LBE656:
.LBE679:
	.loc 1 185 39 view .LVU884
	vcvtsd2ss	%xmm1, %xmm1, %xmm1
	vmovss	%xmm1, (%rdx,%rax,4)
	jmp	.L66
.LVL173:
.L112:
.LBB680:
.LBB657:
.LBB627:
	.loc 1 18 21 is_stmt 1 view .LVU885
	.loc 1 19 5 view .LVU886
	.loc 1 19 7 is_stmt 0 view .LVU887
	vxorpd	%xmm2, %xmm2, %xmm2
	vaddsd	%xmm9, %xmm2, %xmm2
.LVL174:
	.loc 1 18 3 is_stmt 1 view .LVU888
	.loc 1 18 21 view .LVU889
	.loc 1 19 5 view .LVU890
	.loc 1 19 7 is_stmt 0 view .LVU891
	vunpckhpd	%xmm9, %xmm9, %xmm1
	vextractf64x2	$0x1, %ymm9, %xmm9
	vaddsd	%xmm2, %xmm1, %xmm1
.LVL175:
	.loc 1 18 3 is_stmt 1 view .LVU892
	.loc 1 18 21 view .LVU893
	.loc 1 19 5 view .LVU894
.LBE627:
.LBE657:
.LBE680:
	.loc 1 185 22 is_stmt 0 view .LVU895
	movl	-392(%rbp), %edx
	.loc 1 185 39 view .LVU896
	movq	-400(%rbp), %rcx
.LBB681:
.LBB658:
.LBB628:
	.loc 1 19 7 view .LVU897
	vaddsd	%xmm1, %xmm9, %xmm1
.LVL176:
	.loc 1 18 3 is_stmt 1 view .LVU898
	.loc 1 18 21 view .LVU899
	.loc 1 19 5 view .LVU900
	.loc 1 18 3 view .LVU901
	.loc 1 18 21 view .LVU902
.LBE628:
	.loc 1 21 3 view .LVU903
.LBB629:
	.loc 1 19 7 is_stmt 0 view .LVU904
	vunpckhpd	%xmm9, %xmm9, %xmm9
.LBE629:
.LBE658:
.LBE681:
	.loc 1 185 22 view .LVU905
	addl	$2, %edx
.LBB682:
.LBB659:
.LBB630:
	.loc 1 19 7 view .LVU906
	vaddsd	%xmm1, %xmm9, %xmm1
.LBE630:
.LBE659:
.LBE682:
	.loc 1 185 22 view .LVU907
	movslq	%edx, %rdx
	.loc 1 185 39 view .LVU908
	vcvtsd2ss	%xmm1, %xmm1, %xmm1
	vmovss	%xmm1, (%rcx,%rdx,4)
	jmp	.L65
.LVL177:
.L111:
.LBB683:
.LBB660:
.LBB631:
	.loc 1 18 21 is_stmt 1 view .LVU909
	.loc 1 19 5 view .LVU910
	.loc 1 19 7 is_stmt 0 view .LVU911
	vxorpd	%xmm3, %xmm3, %xmm3
	vaddsd	%xmm1, %xmm3, %xmm3
.LVL178:
	.loc 1 18 3 is_stmt 1 view .LVU912
	.loc 1 18 21 view .LVU913
	.loc 1 19 5 view .LVU914
	.loc 1 19 7 is_stmt 0 view .LVU915
	vunpckhpd	%xmm1, %xmm1, %xmm2
	vextractf64x2	$0x1, %ymm1, %xmm1
	vaddsd	%xmm3, %xmm2, %xmm2
.LVL179:
	.loc 1 18 3 is_stmt 1 view .LVU916
	.loc 1 18 21 view .LVU917
	.loc 1 19 5 view .LVU918
.LBE631:
.LBE660:
.LBE683:
	.loc 1 185 22 is_stmt 0 view .LVU919
	movl	-408(%rbp), %ecx
	.loc 1 185 39 view .LVU920
	movq	-400(%rbp), %rdi
.LBB684:
.LBB661:
.LBB632:
	.loc 1 19 7 view .LVU921
	vaddsd	%xmm2, %xmm1, %xmm2
.LVL180:
	.loc 1 18 3 is_stmt 1 view .LVU922
	.loc 1 18 21 view .LVU923
	.loc 1 19 5 view .LVU924
	.loc 1 18 3 view .LVU925
	.loc 1 18 21 view .LVU926
.LBE632:
	.loc 1 21 3 view .LVU927
.LBB633:
	.loc 1 19 7 is_stmt 0 view .LVU928
	vunpckhpd	%xmm1, %xmm1, %xmm1
.LBE633:
.LBE661:
.LBE684:
	.loc 1 185 22 view .LVU929
	decl	%ecx
.LBB685:
.LBB662:
.LBB634:
	.loc 1 19 7 view .LVU930
	vaddsd	%xmm2, %xmm1, %xmm1
.LBE634:
.LBE662:
.LBE685:
	.loc 1 185 22 view .LVU931
	movslq	%ecx, %rcx
	.loc 1 185 39 view .LVU932
	vcvtsd2ss	%xmm1, %xmm1, %xmm1
	vmovss	%xmm1, (%rdi,%rcx,4)
	jmp	.L64
.LVL181:
.L110:
.LBB686:
.LBB663:
.LBB635:
	.loc 1 18 21 is_stmt 1 view .LVU933
	.loc 1 19 5 view .LVU934
	.loc 1 19 7 is_stmt 0 view .LVU935
	vxorpd	%xmm4, %xmm4, %xmm4
	vaddsd	%xmm2, %xmm4, %xmm4
.LVL182:
	.loc 1 18 3 is_stmt 1 view .LVU936
	.loc 1 18 21 view .LVU937
	.loc 1 19 5 view .LVU938
	.loc 1 19 7 is_stmt 0 view .LVU939
	vunpckhpd	%xmm2, %xmm2, %xmm3
	vextractf64x2	$0x1, %ymm2, %xmm2
	vaddsd	%xmm4, %xmm3, %xmm3
.LVL183:
	.loc 1 18 3 is_stmt 1 view .LVU940
	.loc 1 18 21 view .LVU941
	.loc 1 19 5 view .LVU942
.LBE635:
.LBE663:
.LBE686:
	.loc 1 185 22 is_stmt 0 view .LVU943
	movl	-416(%rbp), %ecx
	.loc 1 185 39 view .LVU944
	movq	-400(%rbp), %rdi
.LBB687:
.LBB664:
.LBB636:
	.loc 1 19 7 view .LVU945
	vaddsd	%xmm3, %xmm2, %xmm3
.LVL184:
	.loc 1 18 3 is_stmt 1 view .LVU946
	.loc 1 18 21 view .LVU947
	.loc 1 19 5 view .LVU948
	.loc 1 18 3 view .LVU949
	.loc 1 18 21 view .LVU950
.LBE636:
	.loc 1 21 3 view .LVU951
.LBB637:
	.loc 1 19 7 is_stmt 0 view .LVU952
	vunpckhpd	%xmm2, %xmm2, %xmm2
.LBE637:
.LBE664:
.LBE687:
	.loc 1 185 22 view .LVU953
	decl	%ecx
.LBB688:
.LBB665:
.LBB638:
	.loc 1 19 7 view .LVU954
	vaddsd	%xmm3, %xmm2, %xmm2
.LBE638:
.LBE665:
.LBE688:
	.loc 1 185 22 view .LVU955
	movslq	%ecx, %rcx
	.loc 1 185 39 view .LVU956
	vcvtsd2ss	%xmm2, %xmm2, %xmm2
	vmovss	%xmm2, (%rdi,%rcx,4)
	jmp	.L63
.LVL185:
.L109:
.LBB689:
.LBB666:
.LBB639:
	.loc 1 18 21 is_stmt 1 view .LVU957
	.loc 1 19 5 view .LVU958
	.loc 1 19 7 is_stmt 0 view .LVU959
	vxorpd	%xmm5, %xmm5, %xmm5
	vaddsd	%xmm3, %xmm5, %xmm5
.LVL186:
	.loc 1 18 3 is_stmt 1 view .LVU960
	.loc 1 18 21 view .LVU961
	.loc 1 19 5 view .LVU962
	.loc 1 19 7 is_stmt 0 view .LVU963
	vunpckhpd	%xmm3, %xmm3, %xmm4
	vextractf64x2	$0x1, %ymm3, %xmm3
	vaddsd	%xmm5, %xmm4, %xmm4
.LVL187:
	.loc 1 18 3 is_stmt 1 view .LVU964
	.loc 1 18 21 view .LVU965
	.loc 1 19 5 view .LVU966
.LBE639:
.LBE666:
.LBE689:
	.loc 1 185 22 is_stmt 0 view .LVU967
	movl	-392(%rbp), %ecx
	.loc 1 185 39 view .LVU968
	movq	-400(%rbp), %rdi
.LBB690:
.LBB667:
.LBB640:
	.loc 1 19 7 view .LVU969
	vaddsd	%xmm4, %xmm3, %xmm4
.LVL188:
	.loc 1 18 3 is_stmt 1 view .LVU970
	.loc 1 18 21 view .LVU971
	.loc 1 19 5 view .LVU972
	.loc 1 18 3 view .LVU973
	.loc 1 18 21 view .LVU974
.LBE640:
	.loc 1 21 3 view .LVU975
.LBB641:
	.loc 1 19 7 is_stmt 0 view .LVU976
	vunpckhpd	%xmm3, %xmm3, %xmm3
.LBE641:
.LBE667:
.LBE690:
	.loc 1 185 22 view .LVU977
	incl	%ecx
.LBB691:
.LBB668:
.LBB642:
	.loc 1 19 7 view .LVU978
	vaddsd	%xmm4, %xmm3, %xmm3
.LBE642:
.LBE668:
.LBE691:
	.loc 1 185 22 view .LVU979
	movslq	%ecx, %rcx
	.loc 1 185 39 view .LVU980
	vcvtsd2ss	%xmm3, %xmm3, %xmm3
	vmovss	%xmm3, (%rdi,%rcx,4)
	jmp	.L62
.LVL189:
.L108:
.LBB692:
.LBB669:
.LBB643:
	.loc 1 18 21 is_stmt 1 view .LVU981
	.loc 1 19 5 view .LVU982
	.loc 1 19 7 is_stmt 0 view .LVU983
	vxorpd	%xmm6, %xmm6, %xmm6
	vaddsd	%xmm4, %xmm6, %xmm6
.LVL190:
	.loc 1 18 3 is_stmt 1 view .LVU984
	.loc 1 18 21 view .LVU985
	.loc 1 19 5 view .LVU986
	.loc 1 19 7 is_stmt 0 view .LVU987
	vunpckhpd	%xmm4, %xmm4, %xmm5
	vextractf64x2	$0x1, %ymm4, %xmm4
	vaddsd	%xmm6, %xmm5, %xmm5
.LVL191:
	.loc 1 18 3 is_stmt 1 view .LVU988
	.loc 1 18 21 view .LVU989
	.loc 1 19 5 view .LVU990
.LBE643:
.LBE669:
.LBE692:
	.loc 1 185 22 is_stmt 0 view .LVU991
	movl	-408(%rbp), %ecx
	.loc 1 185 39 view .LVU992
	movq	-400(%rbp), %rdi
.LBB693:
.LBB670:
.LBB644:
	.loc 1 19 7 view .LVU993
	vaddsd	%xmm5, %xmm4, %xmm5
.LVL192:
	.loc 1 18 3 is_stmt 1 view .LVU994
	.loc 1 18 21 view .LVU995
	.loc 1 19 5 view .LVU996
	.loc 1 18 3 view .LVU997
	.loc 1 18 21 view .LVU998
.LBE644:
	.loc 1 21 3 view .LVU999
.LBB645:
	.loc 1 19 7 is_stmt 0 view .LVU1000
	vunpckhpd	%xmm4, %xmm4, %xmm4
.LBE645:
.LBE670:
.LBE693:
	.loc 1 185 22 view .LVU1001
	subl	$2, %ecx
.LBB694:
.LBB671:
.LBB646:
	.loc 1 19 7 view .LVU1002
	vaddsd	%xmm5, %xmm4, %xmm4
.LBE646:
.LBE671:
.LBE694:
	.loc 1 185 22 view .LVU1003
	movslq	%ecx, %rcx
	.loc 1 185 39 view .LVU1004
	vcvtsd2ss	%xmm4, %xmm4, %xmm4
	vmovss	%xmm4, (%rdi,%rcx,4)
	jmp	.L61
.LVL193:
.L107:
.LBB695:
.LBB672:
.LBB647:
	.loc 1 18 21 is_stmt 1 view .LVU1005
	.loc 1 19 5 view .LVU1006
	.loc 1 19 7 is_stmt 0 view .LVU1007
	vxorpd	%xmm7, %xmm7, %xmm7
	vaddsd	%xmm5, %xmm7, %xmm7
.LVL194:
	.loc 1 18 3 is_stmt 1 view .LVU1008
	.loc 1 18 21 view .LVU1009
	.loc 1 19 5 view .LVU1010
	.loc 1 19 7 is_stmt 0 view .LVU1011
	vunpckhpd	%xmm5, %xmm5, %xmm6
	vextractf64x2	$0x1, %ymm5, %xmm5
	vaddsd	%xmm7, %xmm6, %xmm6
.LVL195:
	.loc 1 18 3 is_stmt 1 view .LVU1012
	.loc 1 18 21 view .LVU1013
	.loc 1 19 5 view .LVU1014
.LBE647:
.LBE672:
.LBE695:
	.loc 1 185 22 is_stmt 0 view .LVU1015
	movl	-372(%rbp), %ecx
	.loc 1 185 39 view .LVU1016
	movq	-400(%rbp), %rdi
.LBB696:
.LBB673:
.LBB648:
	.loc 1 19 7 view .LVU1017
	vaddsd	%xmm6, %xmm5, %xmm6
.LVL196:
	.loc 1 18 3 is_stmt 1 view .LVU1018
	.loc 1 18 21 view .LVU1019
	.loc 1 19 5 view .LVU1020
	.loc 1 18 3 view .LVU1021
	.loc 1 18 21 view .LVU1022
.LBE648:
	.loc 1 21 3 view .LVU1023
.LBB649:
	.loc 1 19 7 is_stmt 0 view .LVU1024
	vunpckhpd	%xmm5, %xmm5, %xmm5
.LBE649:
.LBE673:
.LBE696:
	.loc 1 185 22 view .LVU1025
	addl	-392(%rbp), %ecx
.LBB697:
.LBB674:
.LBB650:
	.loc 1 19 7 view .LVU1026
	vaddsd	%xmm6, %xmm5, %xmm5
.LBE650:
.LBE674:
.LBE697:
	.loc 1 185 22 view .LVU1027
	movslq	%ecx, %rcx
	.loc 1 185 39 view .LVU1028
	vcvtsd2ss	%xmm5, %xmm5, %xmm5
	vmovss	%xmm5, (%rdi,%rcx,4)
	jmp	.L60
.LVL197:
.L106:
.LBB698:
.LBB675:
.LBB651:
	.loc 1 18 21 is_stmt 1 view .LVU1029
	.loc 1 19 5 view .LVU1030
	.loc 1 19 7 is_stmt 0 view .LVU1031
	vxorpd	%xmm10, %xmm10, %xmm10
	vaddsd	%xmm6, %xmm10, %xmm10
.LVL198:
	.loc 1 18 3 is_stmt 1 view .LVU1032
	.loc 1 18 21 view .LVU1033
	.loc 1 19 5 view .LVU1034
	.loc 1 19 7 is_stmt 0 view .LVU1035
	vunpckhpd	%xmm6, %xmm6, %xmm7
	vextractf64x2	$0x1, %ymm6, %xmm6
	vaddsd	%xmm10, %xmm7, %xmm7
.LVL199:
	.loc 1 18 3 is_stmt 1 view .LVU1036
	.loc 1 18 21 view .LVU1037
	.loc 1 19 5 view .LVU1038
.LBE651:
.LBE675:
.LBE698:
	.loc 1 185 22 is_stmt 0 view .LVU1039
	movslq	-392(%rbp), %rax
	.loc 1 185 39 view .LVU1040
	movq	-400(%rbp), %rcx
.LBB699:
.LBB676:
.LBB652:
	.loc 1 19 7 view .LVU1041
	vaddsd	%xmm7, %xmm6, %xmm7
.LVL200:
	.loc 1 18 3 is_stmt 1 view .LVU1042
	.loc 1 18 21 view .LVU1043
	.loc 1 19 5 view .LVU1044
	.loc 1 18 3 view .LVU1045
	.loc 1 18 21 view .LVU1046
.LBE652:
	.loc 1 21 3 view .LVU1047
.LBB653:
	.loc 1 19 7 is_stmt 0 view .LVU1048
	vunpckhpd	%xmm6, %xmm6, %xmm6
	vaddsd	%xmm7, %xmm6, %xmm6
.LBE653:
.LBE676:
.LBE699:
	.loc 1 185 39 view .LVU1049
	vcvtsd2ss	%xmm6, %xmm6, %xmm6
	vmovss	%xmm6, (%rcx,%rax,4)
	jmp	.L59
.LVL201:
.L73:
	.loc 1 185 39 view .LVU1050
.LBE709:
.LBE713:
.LBE733:
.LBB734:
	.loc 1 146 27 view .LVU1051
	vxorpd	%xmm0, %xmm0, %xmm0
	vmovapd	%ymm0, %ymm8
	vmovapd	%ymm0, %ymm9
	vmovapd	%ymm0, %ymm1
	vmovapd	%ymm0, %ymm2
	vmovapd	%ymm0, %ymm3
	vmovapd	%ymm0, %ymm4
	vmovapd	%ymm0, %ymm5
	vmovapd	%ymm0, %ymm6
	jmp	.L53
.LVL202:
.L72:
	.loc 1 146 27 view .LVU1052
.LBE734:
.LBE736:
.LBE738:
.LBE775:
.LBB776:
.LBB539:
.LBB538:
	.loc 1 93 31 view .LVU1053
	xorl	%r8d, %r8d
	.loc 1 92 14 view .LVU1054
	xorl	%eax, %eax
.LBE538:
	.loc 1 91 12 view .LVU1055
	vmovsd	%xmm9, %xmm9, %xmm11
	vmovsd	%xmm9, %xmm9, %xmm1
	movslq	%esi, %rdx
	jmp	.L28
.LVL203:
.L69:
	.loc 1 91 12 view .LVU1056
.LBE539:
.LBE776:
.LBB777:
.LBB541:
.LBB542:
	.loc 1 105 16 view .LVU1057
	movl	-420(%rbp), %eax
.LVL204:
	.loc 1 106 33 view .LVU1058
	xorl	%r8d, %r8d
	.loc 1 105 16 view .LVU1059
	movl	%eax, %edx
	sarl	$31, %edx
	shrl	$30, %edx
	addl	%edx, %eax
	andl	$3, %eax
	subl	%edx, %eax
	movslq	%r12d, %rdx
	salq	$5, %rdx
	movq	%rdx, %r13
	.loc 1 106 15 view .LVU1060
	leal	-1(%r12), %edx
	movslq	%eax, %rcx
	movslq	%edx, %rdx
	leaq	(%rcx,%rdx,4), %rdx
	leaq	(%r14,%rdx,8), %rcx
	.loc 1 106 33 view .LVU1061
	movl	$4, %edx
	subl	%eax, %edx
	leaq	0(,%rdx,8), %r10
	movl	%r10d, %r11d
	xorl	%edi, %edi
.LVL205:
.L40:
	.loc 1 106 33 view .LVU1062
.LBE542:
.LBE541:
.LBE777:
	.loc 1 105 7 is_stmt 1 view .LVU1063
.LBB778:
.LBB544:
.LBB543:
	.loc 1 105 33 view .LVU1064
	.loc 1 106 33 is_stmt 0 view .LVU1065
	leaq	8(%rcx), %rsi
	andq	$-8, %rsi
	movq	%rcx, %rax
	subq	%rsi, %rax
	addl	%r10d, %eax
	andl	$-8, %eax
	movq	$0, (%rcx)
.LVL206:
	.loc 1 106 33 view .LVU1066
	movq	$0, -8(%rcx,%r11)
	cmpl	$8, %eax
	jb	.L37
	andl	$-8, %eax
	movl	%eax, %edx
	xorl	%eax, %eax
.L38:
	movl	%eax, %ebx
	addl	$8, %eax
	movq	%rdi, (%rsi,%rbx)
	cmpl	%edx, %eax
	jb	.L38
.L37:
	.loc 1 106 33 view .LVU1067
.LBE543:
	.loc 1 104 5 is_stmt 1 view .LVU1068
	movl	%r8d, %eax
	.loc 1 104 23 is_stmt 0 view .LVU1069
	addq	%r13, %rcx
	.loc 1 104 5 view .LVU1070
	incl	%r8d
.LVL207:
	.loc 1 104 23 is_stmt 1 view .LVU1071
	cmpl	%eax, %r9d
	jne	.L40
	jmp	.L41
.LVL208:
.L115:
	.loc 1 104 23 is_stmt 0 view .LVU1072
	vzeroupper
.LBE544:
.LBE778:
	.loc 1 195 1 view .LVU1073
	addq	$424, %rsp
	popq	%rbx
	popq	%r12
.LVL209:
	.loc 1 195 1 view .LVU1074
	popq	%r13
	.cfi_remember_state
	.cfi_def_cfa 13, 0
	popq	%r14
.LVL210:
	.loc 1 195 1 view .LVU1075
	popq	%r15
	popq	%rbp
	.loc 1 195 1 view .LVU1076
	leaq	-16(%r13), %rsp
	.cfi_def_cfa 7, 16
	popq	%r13
	.cfi_def_cfa_offset 8
	ret
.LVL211:
.L71:
	.cfi_restore_state
.LBB779:
.LBB492:
.LBB449:
.LBB446:
	.loc 4 363 59 view .LVU1077
	movq	$0, -464(%rbp)
.LBB443:
.LBB441:
	.loc 4 346 18 view .LVU1078
	xorl	%r14d, %r14d
	jmp	.L3
.LVL212:
.L105:
	.loc 4 346 18 view .LVU1079
.LBE441:
.LBE443:
.LBE446:
.LBE449:
.LBE492:
.LBE779:
.LBB780:
.LBB570:
	.loc 1 123 16 view .LVU1080
	vmovsd	%xmm3, %xmm3, %xmm0
	movl	%edx, -80(%rbp)
	vzeroupper
.LVL213:
	.loc 1 123 16 view .LVU1081
	call	sqrt@PLT
.LVL214:
	.loc 1 123 16 view .LVU1082
	vmovsd	%xmm0, %xmm0, %xmm1
	.loc 1 124 5 is_stmt 1 view .LVU1083
.LVL215:
.LBB569:
	.loc 1 124 25 view .LVU1084
	movl	-80(%rbp), %edx
	vxorpd	%xmm4, %xmm4, %xmm4
	jmp	.L44
.LVL216:
.L104:
	.loc 1 124 25 is_stmt 0 view .LVU1085
.LBE569:
.LBE570:
.LBE780:
.LBB781:
.LBB493:
.LBB421:
	.loc 4 1770 24 view .LVU1086
	leaq	.LC1(%rip), %rdi
.LVL217:
	.loc 4 1770 24 view .LVU1087
	call	_ZSt20__throw_length_errorPKc@PLT
.LVL218:
	.loc 4 1770 24 view .LVU1088
.LBE421:
.LBE493:
.LBE781:
	.cfi_endproc
.LFE2854:
	.size	_Z9correlateiiPKfPf, .-_Z9correlateiiPKfPf
	.section	.text.startup,"ax",@progbits
	.p2align 4
	.type	_GLOBAL__sub_I__Z9correlateiiPKfPf, @function
_GLOBAL__sub_I__Z9correlateiiPKfPf:
.LFB3550:
	.loc 1 195 1 is_stmt 1 view -0
	.cfi_startproc
	endbr64
.LVL219:
.LBB782:
.LBI782:
	.loc 1 195 1 view .LVU1090
.LBE782:
	pushq	%rbp
	.cfi_def_cfa_offset 16
	.cfi_offset 6, -16
.LBB785:
.LBB783:
	.file 9 "/usr/include/c++/11/iostream"
	.loc 9 74 25 is_stmt 0 view .LVU1091
	leaq	_ZStL8__ioinit(%rip), %rbp
	movq	%rbp, %rdi
	call	_ZNSt8ios_base4InitC1Ev@PLT
.LVL220:
	movq	_ZNSt8ios_base4InitD1Ev@GOTPCREL(%rip), %rdi
	movq	%rbp, %rsi
	leaq	__dso_handle(%rip), %rdx
.LBE783:
.LBE785:
	.loc 1 195 1 view .LVU1092
	popq	%rbp
	.cfi_def_cfa_offset 8
.LBB786:
.LBB784:
	.loc 9 74 25 view .LVU1093
	jmp	__cxa_atexit@PLT
.LVL221:
.LBE784:
.LBE786:
	.cfi_endproc
.LFE3550:
	.size	_GLOBAL__sub_I__Z9correlateiiPKfPf, .-_GLOBAL__sub_I__Z9correlateiiPKfPf
	.section	.init_array,"aw"
	.align 8
	.quad	_GLOBAL__sub_I__Z9correlateiiPKfPf
	.local	_ZStL8__ioinit
	.comm	_ZStL8__ioinit,1,1
	.section	.rodata.cst32,"aM",@progbits,32
	.align 32
.LC2:
	.quad	0
	.quad	2
	.quad	4
	.quad	6
	.align 32
.LC3:
	.quad	1
	.quad	3
	.quad	5
	.quad	7
	.text
.Letext0:
	.file 10 "<built-in>"
	.file 11 "/usr/lib/gcc/x86_64-linux-gnu/11/include/stddef.h"
	.file 12 "/usr/include/x86_64-linux-gnu/bits/types/wint_t.h"
	.file 13 "/usr/include/x86_64-linux-gnu/bits/types/__mbstate_t.h"
	.file 14 "/usr/include/x86_64-linux-gnu/bits/types/mbstate_t.h"
	.file 15 "/usr/include/x86_64-linux-gnu/bits/types/__FILE.h"
	.file 16 "/usr/include/x86_64-linux-gnu/bits/types/struct_FILE.h"
	.file 17 "/usr/include/x86_64-linux-gnu/bits/types/FILE.h"
	.file 18 "/usr/include/c++/11/cwchar"
	.file 19 "/usr/include/c++/11/type_traits"
	.file 20 "/usr/include/x86_64-linux-gnu/c++/11/bits/c++config.h"
	.file 21 "/usr/include/c++/11/bits/exception_ptr.h"
	.file 22 "/usr/include/c++/11/bits/stl_iterator_base_types.h"
	.file 23 "/usr/include/c++/11/debug/debug.h"
	.file 24 "/usr/include/c++/11/cstdint"
	.file 25 "/usr/include/c++/11/clocale"
	.file 26 "/usr/include/c++/11/cstdlib"
	.file 27 "/usr/include/c++/11/cstdio"
	.file 28 "/usr/include/c++/11/bits/ios_base.h"
	.file 29 "/usr/include/c++/11/cwctype"
	.file 30 "/usr/include/c++/11/cmath"
	.file 31 "/usr/include/c++/11/bits/std_abs.h"
	.file 32 "/usr/include/c++/11/ctime"
	.file 33 "/usr/include/c++/11/chrono"
	.file 34 "/usr/include/c++/11/system_error"
	.file 35 "/usr/include/c++/11/bits/vector.tcc"
	.file 36 "/usr/include/c++/11/initializer_list"
	.file 37 "/usr/include/c++/11/bits/stl_iterator.h"
	.file 38 "/usr/include/c++/11/bits/functexcept.h"
	.file 39 "/usr/include/c++/11/bits/move.h"
	.file 40 "/usr/include/wchar.h"
	.file 41 "/usr/include/x86_64-linux-gnu/bits/wchar2.h"
	.file 42 "/usr/include/x86_64-linux-gnu/bits/types/struct_tm.h"
	.file 43 "/usr/include/c++/11/bits/predefined_ops.h"
	.file 44 "/usr/include/c++/11/ext/alloc_traits.h"
	.file 45 "/usr/include/x86_64-linux-gnu/bits/types.h"
	.file 46 "/usr/include/x86_64-linux-gnu/bits/stdint-intn.h"
	.file 47 "/usr/include/x86_64-linux-gnu/bits/stdint-uintn.h"
	.file 48 "/usr/include/stdint.h"
	.file 49 "/usr/include/locale.h"
	.file 50 "/usr/include/x86_64-linux-gnu/bits/types/time_t.h"
	.file 51 "/usr/include/x86_64-linux-gnu/bits/types/struct_timespec.h"
	.file 52 "/usr/include/x86_64-linux-gnu/bits/types/clock_t.h"
	.file 53 "/usr/include/stdlib.h"
	.file 54 "/usr/include/x86_64-linux-gnu/bits/stdlib-float.h"
	.file 55 "/usr/include/x86_64-linux-gnu/bits/stdlib-bsearch.h"
	.file 56 "/usr/include/x86_64-linux-gnu/bits/stdlib.h"
	.file 57 "/usr/include/x86_64-linux-gnu/bits/types/__fpos_t.h"
	.file 58 "/usr/include/stdio.h"
	.file 59 "/usr/include/x86_64-linux-gnu/bits/stdio2.h"
	.file 60 "/usr/include/x86_64-linux-gnu/bits/stdio.h"
	.file 61 "/usr/include/x86_64-linux-gnu/bits/wctype-wchar.h"
	.file 62 "/usr/include/wctype.h"
	.file 63 "/usr/include/math.h"
	.file 64 "/usr/include/c++/11/math.h"
	.file 65 "/usr/include/time.h"
	.file 66 "/usr/include/c++/11/new"
	.file 67 "/usr/include/x86_64-linux-gnu/bits/mathcalls.h"
	.file 68 "/usr/include/c++/11/string_view"
	.section	.note.GNU-stack,"",@progbits
	.section	.note.gnu.property,"a"
	.align 8
	.long	1f - 0f
	.long	4f - 1f
	.long	5
0:
	.string	"GNU"
1:
	.align 8
	.long	0xc0000002
	.long	3f - 2f
2:
	.long	0x3
3:
	.align 8
4:
